
bomb:     file format elf64-x86-64


Disassembly of section .init:

0000000000400a98 <_init>:
  400a98:	48 83 ec 08          	sub    $0x8,%rsp
  400a9c:	48 8b 05 55 35 20 00 	mov    0x203555(%rip),%rax        # 603ff8 <__gmon_start__>
  400aa3:	48 85 c0             	test   %rax,%rax
  400aa6:	74 05                	je     400aad <_init+0x15>
  400aa8:	e8 13 01 00 00       	callq  400bc0 <__gmon_start__@plt>
  400aad:	48 83 c4 08          	add    $0x8,%rsp
  400ab1:	c3                   	retq   

Disassembly of section .plt:

0000000000400ac0 <.plt>:
  400ac0:	ff 35 42 35 20 00    	pushq  0x203542(%rip)        # 604008 <_GLOBAL_OFFSET_TABLE_+0x8>
  400ac6:	ff 25 44 35 20 00    	jmpq   *0x203544(%rip)        # 604010 <_GLOBAL_OFFSET_TABLE_+0x10>
  400acc:	0f 1f 40 00          	nopl   0x0(%rax)

0000000000400ad0 <getenv@plt>:
  400ad0:	ff 25 42 35 20 00    	jmpq   *0x203542(%rip)        # 604018 <getenv@GLIBC_2.2.5>
  400ad6:	68 00 00 00 00       	pushq  $0x0
  400adb:	e9 e0 ff ff ff       	jmpq   400ac0 <.plt>

0000000000400ae0 <strcasecmp@plt>:
  400ae0:	ff 25 3a 35 20 00    	jmpq   *0x20353a(%rip)        # 604020 <strcasecmp@GLIBC_2.2.5>
  400ae6:	68 01 00 00 00       	pushq  $0x1
  400aeb:	e9 d0 ff ff ff       	jmpq   400ac0 <.plt>

0000000000400af0 <__errno_location@plt>:
  400af0:	ff 25 32 35 20 00    	jmpq   *0x203532(%rip)        # 604028 <__errno_location@GLIBC_2.2.5>
  400af6:	68 02 00 00 00       	pushq  $0x2
  400afb:	e9 c0 ff ff ff       	jmpq   400ac0 <.plt>

0000000000400b00 <strcpy@plt>:
  400b00:	ff 25 2a 35 20 00    	jmpq   *0x20352a(%rip)        # 604030 <strcpy@GLIBC_2.2.5>
  400b06:	68 03 00 00 00       	pushq  $0x3
  400b0b:	e9 b0 ff ff ff       	jmpq   400ac0 <.plt>

0000000000400b10 <puts@plt>:
  400b10:	ff 25 22 35 20 00    	jmpq   *0x203522(%rip)        # 604038 <puts@GLIBC_2.2.5>
  400b16:	68 04 00 00 00       	pushq  $0x4
  400b1b:	e9 a0 ff ff ff       	jmpq   400ac0 <.plt>

0000000000400b20 <write@plt>:
  400b20:	ff 25 1a 35 20 00    	jmpq   *0x20351a(%rip)        # 604040 <write@GLIBC_2.2.5>
  400b26:	68 05 00 00 00       	pushq  $0x5
  400b2b:	e9 90 ff ff ff       	jmpq   400ac0 <.plt>

0000000000400b30 <printf@plt>:
  400b30:	ff 25 12 35 20 00    	jmpq   *0x203512(%rip)        # 604048 <printf@GLIBC_2.2.5>
  400b36:	68 06 00 00 00       	pushq  $0x6
  400b3b:	e9 80 ff ff ff       	jmpq   400ac0 <.plt>

0000000000400b40 <alarm@plt>:
  400b40:	ff 25 0a 35 20 00    	jmpq   *0x20350a(%rip)        # 604050 <alarm@GLIBC_2.2.5>
  400b46:	68 07 00 00 00       	pushq  $0x7
  400b4b:	e9 70 ff ff ff       	jmpq   400ac0 <.plt>

0000000000400b50 <close@plt>:
  400b50:	ff 25 02 35 20 00    	jmpq   *0x203502(%rip)        # 604058 <close@GLIBC_2.2.5>
  400b56:	68 08 00 00 00       	pushq  $0x8
  400b5b:	e9 60 ff ff ff       	jmpq   400ac0 <.plt>

0000000000400b60 <read@plt>:
  400b60:	ff 25 fa 34 20 00    	jmpq   *0x2034fa(%rip)        # 604060 <read@GLIBC_2.2.5>
  400b66:	68 09 00 00 00       	pushq  $0x9
  400b6b:	e9 50 ff ff ff       	jmpq   400ac0 <.plt>

0000000000400b70 <__libc_start_main@plt>:
  400b70:	ff 25 f2 34 20 00    	jmpq   *0x2034f2(%rip)        # 604068 <__libc_start_main@GLIBC_2.2.5>
  400b76:	68 0a 00 00 00       	pushq  $0xa
  400b7b:	e9 40 ff ff ff       	jmpq   400ac0 <.plt>

0000000000400b80 <fgets@plt>:
  400b80:	ff 25 ea 34 20 00    	jmpq   *0x2034ea(%rip)        # 604070 <fgets@GLIBC_2.2.5>
  400b86:	68 0b 00 00 00       	pushq  $0xb
  400b8b:	e9 30 ff ff ff       	jmpq   400ac0 <.plt>

0000000000400b90 <signal@plt>:
  400b90:	ff 25 e2 34 20 00    	jmpq   *0x2034e2(%rip)        # 604078 <signal@GLIBC_2.2.5>
  400b96:	68 0c 00 00 00       	pushq  $0xc
  400b9b:	e9 20 ff ff ff       	jmpq   400ac0 <.plt>

0000000000400ba0 <gethostbyname@plt>:
  400ba0:	ff 25 da 34 20 00    	jmpq   *0x2034da(%rip)        # 604080 <gethostbyname@GLIBC_2.2.5>
  400ba6:	68 0d 00 00 00       	pushq  $0xd
  400bab:	e9 10 ff ff ff       	jmpq   400ac0 <.plt>

0000000000400bb0 <fprintf@plt>:
  400bb0:	ff 25 d2 34 20 00    	jmpq   *0x2034d2(%rip)        # 604088 <fprintf@GLIBC_2.2.5>
  400bb6:	68 0e 00 00 00       	pushq  $0xe
  400bbb:	e9 00 ff ff ff       	jmpq   400ac0 <.plt>

0000000000400bc0 <__gmon_start__@plt>:
  400bc0:	ff 25 ca 34 20 00    	jmpq   *0x2034ca(%rip)        # 604090 <__gmon_start__>
  400bc6:	68 0f 00 00 00       	pushq  $0xf
  400bcb:	e9 f0 fe ff ff       	jmpq   400ac0 <.plt>

0000000000400bd0 <memcpy@plt>:
  400bd0:	ff 25 c2 34 20 00    	jmpq   *0x2034c2(%rip)        # 604098 <memcpy@GLIBC_2.14>
  400bd6:	68 10 00 00 00       	pushq  $0x10
  400bdb:	e9 e0 fe ff ff       	jmpq   400ac0 <.plt>

0000000000400be0 <fflush@plt>:
  400be0:	ff 25 ba 34 20 00    	jmpq   *0x2034ba(%rip)        # 6040a0 <fflush@GLIBC_2.2.5>
  400be6:	68 11 00 00 00       	pushq  $0x11
  400beb:	e9 d0 fe ff ff       	jmpq   400ac0 <.plt>

0000000000400bf0 <__isoc99_sscanf@plt>:
  400bf0:	ff 25 b2 34 20 00    	jmpq   *0x2034b2(%rip)        # 6040a8 <__isoc99_sscanf@GLIBC_2.7>
  400bf6:	68 12 00 00 00       	pushq  $0x12
  400bfb:	e9 c0 fe ff ff       	jmpq   400ac0 <.plt>

0000000000400c00 <bcopy@plt>:
  400c00:	ff 25 aa 34 20 00    	jmpq   *0x2034aa(%rip)        # 6040b0 <bcopy@GLIBC_2.2.5>
  400c06:	68 13 00 00 00       	pushq  $0x13
  400c0b:	e9 b0 fe ff ff       	jmpq   400ac0 <.plt>

0000000000400c10 <fopen@plt>:
  400c10:	ff 25 a2 34 20 00    	jmpq   *0x2034a2(%rip)        # 6040b8 <fopen@GLIBC_2.2.5>
  400c16:	68 14 00 00 00       	pushq  $0x14
  400c1b:	e9 a0 fe ff ff       	jmpq   400ac0 <.plt>

0000000000400c20 <gethostname@plt>:
  400c20:	ff 25 9a 34 20 00    	jmpq   *0x20349a(%rip)        # 6040c0 <gethostname@GLIBC_2.2.5>
  400c26:	68 15 00 00 00       	pushq  $0x15
  400c2b:	e9 90 fe ff ff       	jmpq   400ac0 <.plt>

0000000000400c30 <sprintf@plt>:
  400c30:	ff 25 92 34 20 00    	jmpq   *0x203492(%rip)        # 6040c8 <sprintf@GLIBC_2.2.5>
  400c36:	68 16 00 00 00       	pushq  $0x16
  400c3b:	e9 80 fe ff ff       	jmpq   400ac0 <.plt>

0000000000400c40 <exit@plt>:
  400c40:	ff 25 8a 34 20 00    	jmpq   *0x20348a(%rip)        # 6040d0 <exit@GLIBC_2.2.5>
  400c46:	68 17 00 00 00       	pushq  $0x17
  400c4b:	e9 70 fe ff ff       	jmpq   400ac0 <.plt>

0000000000400c50 <connect@plt>:
  400c50:	ff 25 82 34 20 00    	jmpq   *0x203482(%rip)        # 6040d8 <connect@GLIBC_2.2.5>
  400c56:	68 18 00 00 00       	pushq  $0x18
  400c5b:	e9 60 fe ff ff       	jmpq   400ac0 <.plt>

0000000000400c60 <sleep@plt>:
  400c60:	ff 25 7a 34 20 00    	jmpq   *0x20347a(%rip)        # 6040e0 <sleep@GLIBC_2.2.5>
  400c66:	68 19 00 00 00       	pushq  $0x19
  400c6b:	e9 50 fe ff ff       	jmpq   400ac0 <.plt>

0000000000400c70 <__ctype_b_loc@plt>:
  400c70:	ff 25 72 34 20 00    	jmpq   *0x203472(%rip)        # 6040e8 <__ctype_b_loc@GLIBC_2.3>
  400c76:	68 1a 00 00 00       	pushq  $0x1a
  400c7b:	e9 40 fe ff ff       	jmpq   400ac0 <.plt>

0000000000400c80 <socket@plt>:
  400c80:	ff 25 6a 34 20 00    	jmpq   *0x20346a(%rip)        # 6040f0 <socket@GLIBC_2.2.5>
  400c86:	68 1b 00 00 00       	pushq  $0x1b
  400c8b:	e9 30 fe ff ff       	jmpq   400ac0 <.plt>

Disassembly of section .text:

0000000000400c90 <_start>:
  400c90:	31 ed                	xor    %ebp,%ebp
  400c92:	49 89 d1             	mov    %rdx,%r9
  400c95:	5e                   	pop    %rsi
  400c96:	48 89 e2             	mov    %rsp,%rdx
  400c99:	48 83 e4 f0          	and    $0xfffffffffffffff0,%rsp
  400c9d:	50                   	push   %rax
  400c9e:	54                   	push   %rsp
  400c9f:	49 c7 c0 30 29 40 00 	mov    $0x402930,%r8
  400ca6:	48 c7 c1 c0 28 40 00 	mov    $0x4028c0,%rcx
  400cad:	48 c7 c7 7d 0d 40 00 	mov    $0x400d7d,%rdi
  400cb4:	e8 b7 fe ff ff       	callq  400b70 <__libc_start_main@plt>
  400cb9:	f4                   	hlt    
  400cba:	66 0f 1f 44 00 00    	nopw   0x0(%rax,%rax,1)

0000000000400cc0 <deregister_tm_clones>:
  400cc0:	b8 07 46 60 00       	mov    $0x604607,%eax
  400cc5:	55                   	push   %rbp
  400cc6:	48 2d 00 46 60 00    	sub    $0x604600,%rax
  400ccc:	48 83 f8 0e          	cmp    $0xe,%rax
  400cd0:	48 89 e5             	mov    %rsp,%rbp
  400cd3:	77 02                	ja     400cd7 <deregister_tm_clones+0x17>
  400cd5:	5d                   	pop    %rbp
  400cd6:	c3                   	retq   
  400cd7:	b8 00 00 00 00       	mov    $0x0,%eax
  400cdc:	48 85 c0             	test   %rax,%rax
  400cdf:	74 f4                	je     400cd5 <deregister_tm_clones+0x15>
  400ce1:	5d                   	pop    %rbp
  400ce2:	bf 00 46 60 00       	mov    $0x604600,%edi
  400ce7:	ff e0                	jmpq   *%rax
  400ce9:	0f 1f 80 00 00 00 00 	nopl   0x0(%rax)

0000000000400cf0 <register_tm_clones>:
  400cf0:	b8 00 46 60 00       	mov    $0x604600,%eax
  400cf5:	55                   	push   %rbp
  400cf6:	48 2d 00 46 60 00    	sub    $0x604600,%rax
  400cfc:	48 c1 f8 03          	sar    $0x3,%rax
  400d00:	48 89 e5             	mov    %rsp,%rbp
  400d03:	48 89 c2             	mov    %rax,%rdx
  400d06:	48 c1 ea 3f          	shr    $0x3f,%rdx
  400d0a:	48 01 d0             	add    %rdx,%rax
  400d0d:	48 d1 f8             	sar    %rax
  400d10:	75 02                	jne    400d14 <register_tm_clones+0x24>
  400d12:	5d                   	pop    %rbp
  400d13:	c3                   	retq   
  400d14:	ba 00 00 00 00       	mov    $0x0,%edx
  400d19:	48 85 d2             	test   %rdx,%rdx
  400d1c:	74 f4                	je     400d12 <register_tm_clones+0x22>
  400d1e:	5d                   	pop    %rbp
  400d1f:	48 89 c6             	mov    %rax,%rsi
  400d22:	bf 00 46 60 00       	mov    $0x604600,%edi
  400d27:	ff e2                	jmpq   *%rdx
  400d29:	0f 1f 80 00 00 00 00 	nopl   0x0(%rax)

0000000000400d30 <__do_global_dtors_aux>:
  400d30:	80 3d e1 38 20 00 00 	cmpb   $0x0,0x2038e1(%rip)        # 604618 <completed.6355>
  400d37:	75 11                	jne    400d4a <__do_global_dtors_aux+0x1a>
  400d39:	55                   	push   %rbp
  400d3a:	48 89 e5             	mov    %rsp,%rbp
  400d3d:	e8 7e ff ff ff       	callq  400cc0 <deregister_tm_clones>
  400d42:	5d                   	pop    %rbp
  400d43:	c6 05 ce 38 20 00 01 	movb   $0x1,0x2038ce(%rip)        # 604618 <completed.6355>
  400d4a:	f3 c3                	repz retq 
  400d4c:	0f 1f 40 00          	nopl   0x0(%rax)

0000000000400d50 <frame_dummy>:
  400d50:	48 83 3d c8 30 20 00 	cmpq   $0x0,0x2030c8(%rip)        # 603e20 <__JCR_END__>
  400d57:	00 
  400d58:	74 1e                	je     400d78 <frame_dummy+0x28>
  400d5a:	b8 00 00 00 00       	mov    $0x0,%eax
  400d5f:	48 85 c0             	test   %rax,%rax
  400d62:	74 14                	je     400d78 <frame_dummy+0x28>
  400d64:	55                   	push   %rbp
  400d65:	bf 20 3e 60 00       	mov    $0x603e20,%edi
  400d6a:	48 89 e5             	mov    %rsp,%rbp
  400d6d:	ff d0                	callq  *%rax
  400d6f:	5d                   	pop    %rbp
  400d70:	e9 7b ff ff ff       	jmpq   400cf0 <register_tm_clones>
  400d75:	0f 1f 00             	nopl   (%rax)
  400d78:	e9 73 ff ff ff       	jmpq   400cf0 <register_tm_clones>

0000000000400d7d <main>:
  400d7d:	55                   	push   %rbp
  400d7e:	53                   	push   %rbx
  400d7f:	48 83 ec 08          	sub    $0x8,%rsp
  400d83:	89 fb                	mov    %edi,%ebx
  400d85:	83 ff 01             	cmp    $0x1,%edi
  400d88:	75 10                	jne    400d9a <main+0x1d>
  400d8a:	48 8b 05 77 38 20 00 	mov    0x203877(%rip),%rax        # 604608 <stdin@@GLIBC_2.2.5>
  400d91:	48 89 05 90 38 20 00 	mov    %rax,0x203890(%rip)        # 604628 <infile>
  400d98:	eb 5a                	jmp    400df4 <main+0x77>
  400d9a:	48 89 f5             	mov    %rsi,%rbp
  400d9d:	83 ff 02             	cmp    $0x2,%edi
  400da0:	75 36                	jne    400dd8 <main+0x5b>
  400da2:	48 8b 7e 08          	mov    0x8(%rsi),%rdi
  400da6:	be 50 29 40 00       	mov    $0x402950,%esi
  400dab:	e8 60 fe ff ff       	callq  400c10 <fopen@plt>
  400db0:	48 89 05 71 38 20 00 	mov    %rax,0x203871(%rip)        # 604628 <infile>
  400db7:	48 85 c0             	test   %rax,%rax
  400dba:	75 38                	jne    400df4 <main+0x77>
  400dbc:	48 8b 55 08          	mov    0x8(%rbp),%rdx
  400dc0:	48 8b 75 00          	mov    0x0(%rbp),%rsi
  400dc4:	bf 52 29 40 00       	mov    $0x402952,%edi
  400dc9:	e8 62 fd ff ff       	callq  400b30 <printf@plt>
  400dce:	bf 08 00 00 00       	mov    $0x8,%edi
  400dd3:	e8 68 fe ff ff       	callq  400c40 <exit@plt>
  400dd8:	48 8b 36             	mov    (%rsi),%rsi
  400ddb:	bf 6f 29 40 00       	mov    $0x40296f,%edi
  400de0:	b8 00 00 00 00       	mov    $0x0,%eax
  400de5:	e8 46 fd ff ff       	callq  400b30 <printf@plt>
  400dea:	bf 08 00 00 00       	mov    $0x8,%edi
  400def:	e8 4c fe ff ff       	callq  400c40 <exit@plt>
  400df4:	e8 9e 05 00 00       	callq  401397 <initialize_bomb>
  400df9:	89 df                	mov    %ebx,%edi
  400dfb:	b8 00 00 00 00       	mov    $0x0,%eax
  400e00:	e8 4b 06 00 00       	callq  401450 <welcome_message>
  400e05:	e8 4e 0e 00 00       	callq  401c58 <read_line>
  400e0a:	48 89 c7             	mov    %rax,%rdi
  400e0d:	e8 ae 00 00 00       	callq  400ec0 <phase_1>
  400e12:	e8 30 08 00 00       	callq  401647 <phase_defused>
  400e17:	bf a8 29 40 00       	mov    $0x4029a8,%edi
  400e1c:	e8 ef fc ff ff       	callq  400b10 <puts@plt>
  400e21:	e8 32 0e 00 00       	callq  401c58 <read_line>
  400e26:	48 89 c7             	mov    %rax,%rdi
  400e29:	e8 ad 00 00 00       	callq  400edb <phase_2>
  400e2e:	e8 14 08 00 00       	callq  401647 <phase_defused>
  400e33:	bf e8 29 40 00       	mov    $0x4029e8,%edi
  400e38:	e8 d3 fc ff ff       	callq  400b10 <puts@plt>
  400e3d:	e8 16 0e 00 00       	callq  401c58 <read_line>
  400e42:	48 89 c7             	mov    %rax,%rdi
  400e45:	e8 50 01 00 00       	callq  400f9a <phase_3>
  400e4a:	e8 f8 07 00 00       	callq  401647 <phase_defused>
  400e4f:	bf 10 2a 40 00       	mov    $0x402a10,%edi
  400e54:	e8 b7 fc ff ff       	callq  400b10 <puts@plt>
  400e59:	e8 fa 0d 00 00       	callq  401c58 <read_line>
  400e5e:	48 89 c7             	mov    %rax,%rdi
  400e61:	e8 99 01 00 00       	callq  400fff <phase_4>
  400e66:	e8 dc 07 00 00       	callq  401647 <phase_defused>
  400e6b:	bf 38 2a 40 00       	mov    $0x402a38,%edi
  400e70:	e8 9b fc ff ff       	callq  400b10 <puts@plt>
  400e75:	e8 de 0d 00 00       	callq  401c58 <read_line>
  400e7a:	48 89 c7             	mov    %rax,%rdi
  400e7d:	e8 22 02 00 00       	callq  4010a4 <phase_5>
  400e82:	e8 c0 07 00 00       	callq  401647 <phase_defused>
  400e87:	bf 70 2a 40 00       	mov    $0x402a70,%edi
  400e8c:	e8 7f fc ff ff       	callq  400b10 <puts@plt>
  400e91:	e8 c2 0d 00 00       	callq  401c58 <read_line>
  400e96:	48 89 c7             	mov    %rax,%rdi
  400e99:	e8 57 02 00 00       	callq  4010f5 <phase_6>
  400e9e:	e8 a4 07 00 00       	callq  401647 <phase_defused>
  400ea3:	bf 89 29 40 00       	mov    $0x402989,%edi
  400ea8:	e8 63 fc ff ff       	callq  400b10 <puts@plt>
  400ead:	b8 00 00 00 00       	mov    $0x0,%eax
  400eb2:	48 83 c4 08          	add    $0x8,%rsp
  400eb6:	5b                   	pop    %rbx
  400eb7:	5d                   	pop    %rbp
  400eb8:	c3                   	retq   
  400eb9:	0f 1f 80 00 00 00 00 	nopl   0x0(%rax)

0000000000400ec0 <phase_1>:
  400ec0:	53                   	push   %rbx
  400ec1:	48 89 fb             	mov    %rdi,%rbx
  400ec4:	80 7f 01 00          	cmpb   $0x0,0x1(%rdi)
  400ec8:	74 05                	je     400ecf <phase_1+0xf>
  400eca:	e8 b1 07 00 00       	callq  401680 <explode_bomb>
  400ecf:	80 3b 63             	cmpb   $0x63,(%rbx)
  400ed2:	74 05                	je     400ed9 <phase_1+0x19>
  400ed4:	e8 a7 07 00 00       	callq  401680 <explode_bomb>
  400ed9:	5b                   	pop    %rbx
  400eda:	c3                   	retq   

0000000000400edb <phase_2>:
  400edb:	41 54                	push   %r12
  400edd:	55                   	push   %rbp
  400ede:	53                   	push   %rbx
  400edf:	48 83 ec 20          	sub    $0x20,%rsp
  400ee3:	48 89 e6             	mov    %rsp,%rsi
  400ee6:	e8 2b 0d 00 00       	callq  401c16 <read_six_numbers>
  400eeb:	83 3c 24 00          	cmpl   $0x0,(%rsp)
  400eef:	75 47                	jne    400f38 <phase_2+0x5d>
  400ef1:	83 7c 24 04 00       	cmpl   $0x0,0x4(%rsp)
  400ef6:	75 40                	jne    400f38 <phase_2+0x5d>
  400ef8:	e8 83 07 00 00       	callq  401680 <explode_bomb>
  400efd:	0f 1f 00             	nopl   (%rax)
  400f00:	eb 36                	jmp    400f38 <phase_2+0x5d>
  400f02:	48 89 dd             	mov    %rbx,%rbp
  400f05:	8b 43 f8             	mov    -0x8(%rbx),%eax
  400f08:	03 43 fc             	add    -0x4(%rbx),%eax
  400f0b:	39 03                	cmp    %eax,(%rbx)
  400f0d:	74 05                	je     400f14 <phase_2+0x39>
  400f0f:	e8 6c 07 00 00       	callq  401680 <explode_bomb>
  400f14:	8b 45 00             	mov    0x0(%rbp),%eax
  400f17:	89 05 ff 36 20 00    	mov    %eax,0x2036ff(%rip)        # 60461c <last>
  400f1d:	48 83 c3 04          	add    $0x4,%rbx
  400f21:	4c 39 e3             	cmp    %r12,%rbx
  400f24:	75 dc                	jne    400f02 <phase_2+0x27>
  400f26:	8b 05 f0 36 20 00    	mov    0x2036f0(%rip),%eax        # 60461c <last>
  400f2c:	83 f8 08             	cmp    $0x8,%eax
  400f2f:	75 13                	jne    400f44 <phase_2+0x69>
  400f31:	e8 4a 07 00 00       	callq  401680 <explode_bomb>
  400f36:	eb 0c                	jmp    400f44 <phase_2+0x69>
  400f38:	48 8d 5c 24 08       	lea    0x8(%rsp),%rbx
  400f3d:	4c 8d 64 24 18       	lea    0x18(%rsp),%r12
  400f42:	eb be                	jmp    400f02 <phase_2+0x27>
  400f44:	48 83 c4 20          	add    $0x20,%rsp
  400f48:	5b                   	pop    %rbx
  400f49:	5d                   	pop    %rbp
  400f4a:	41 5c                	pop    %r12
  400f4c:	c3                   	retq   

0000000000400f4d <func_switch>:
  400f4d:	83 ff 07             	cmp    $0x7,%edi
  400f50:	77 2d                	ja     400f7f <func_switch+0x32>
  400f52:	89 ff                	mov    %edi,%edi
  400f54:	ff 24 fd a0 2a 40 00 	jmpq   *0x402aa0(,%rdi,8)
  400f5b:	b8 90 03 00 00       	mov    $0x390,%eax
  400f60:	c3                   	retq   
  400f61:	b8 03 01 00 00       	mov    $0x103,%eax
  400f66:	c3                   	retq   
  400f67:	b8 d8 03 00 00       	mov    $0x3d8,%eax
  400f6c:	c3                   	retq   
  400f6d:	b8 32 00 00 00       	mov    $0x32,%eax
  400f72:	c3                   	retq   
  400f73:	b8 7e 03 00 00       	mov    $0x37e,%eax
  400f78:	c3                   	retq   
  400f79:	b8 56 02 00 00       	mov    $0x256,%eax
  400f7e:	c3                   	retq   
  400f7f:	48 83 ec 08          	sub    $0x8,%rsp
  400f83:	e8 f8 06 00 00       	callq  401680 <explode_bomb>
  400f88:	b8 00 00 00 00       	mov    $0x0,%eax
  400f8d:	eb 06                	jmp    400f95 <func_switch+0x48>
  400f8f:	b8 69 02 00 00       	mov    $0x269,%eax
  400f94:	c3                   	retq   
  400f95:	48 83 c4 08          	add    $0x8,%rsp
  400f99:	c3                   	retq   

0000000000400f9a <phase_3>:
  400f9a:	53                   	push   %rbx
  400f9b:	48 83 ec 10          	sub    $0x10,%rsp
  400f9f:	c7 44 24 0c 00 00 00 	movl   $0x0,0xc(%rsp)
  400fa6:	00 
  400fa7:	c7 44 24 08 00 00 00 	movl   $0x0,0x8(%rsp)
  400fae:	00 
  400faf:	48 8d 4c 24 08       	lea    0x8(%rsp),%rcx
  400fb4:	48 8d 54 24 0c       	lea    0xc(%rsp),%rdx
  400fb9:	be a9 31 40 00       	mov    $0x4031a9,%esi
  400fbe:	b8 00 00 00 00       	mov    $0x0,%eax
  400fc3:	e8 28 fc ff ff       	callq  400bf0 <__isoc99_sscanf@plt>
  400fc8:	83 f8 01             	cmp    $0x1,%eax
  400fcb:	7e 0a                	jle    400fd7 <phase_3+0x3d>
  400fcd:	8b 44 24 08          	mov    0x8(%rsp),%eax
  400fd1:	39 44 24 0c          	cmp    %eax,0xc(%rsp)
  400fd5:	75 05                	jne    400fdc <phase_3+0x42>
  400fd7:	e8 a4 06 00 00       	callq  401680 <explode_bomb>
  400fdc:	8b 7c 24 0c          	mov    0xc(%rsp),%edi
  400fe0:	e8 68 ff ff ff       	callq  400f4d <func_switch>
  400fe5:	89 c3                	mov    %eax,%ebx
  400fe7:	8b 7c 24 08          	mov    0x8(%rsp),%edi
  400feb:	e8 5d ff ff ff       	callq  400f4d <func_switch>
  400ff0:	39 c3                	cmp    %eax,%ebx
  400ff2:	74 05                	je     400ff9 <phase_3+0x5f>
  400ff4:	e8 87 06 00 00       	callq  401680 <explode_bomb>
  400ff9:	48 83 c4 10          	add    $0x10,%rsp
  400ffd:	5b                   	pop    %rbx
  400ffe:	c3                   	retq   

0000000000400fff <phase_4>:
  400fff:	48 83 ec 18          	sub    $0x18,%rsp
  401003:	48 8d 4c 24 08       	lea    0x8(%rsp),%rcx
  401008:	48 8d 54 24 0c       	lea    0xc(%rsp),%rdx
  40100d:	be a9 31 40 00       	mov    $0x4031a9,%esi
  401012:	b8 00 00 00 00       	mov    $0x0,%eax
  401017:	e8 d4 fb ff ff       	callq  400bf0 <__isoc99_sscanf@plt>
  40101c:	83 f8 01             	cmp    $0x1,%eax
  40101f:	7f 05                	jg     401026 <phase_4+0x27>
  401021:	e8 5a 06 00 00       	callq  401680 <explode_bomb>
  401026:	8b 44 24 0c          	mov    0xc(%rsp),%eax
  40102a:	83 e0 0f             	and    $0xf,%eax
  40102d:	89 44 24 0c          	mov    %eax,0xc(%rsp)
  401031:	83 f8 0f             	cmp    $0xf,%eax
  401034:	74 2c                	je     401062 <phase_4+0x63>
  401036:	b9 00 00 00 00       	mov    $0x0,%ecx
  40103b:	ba 00 00 00 00       	mov    $0x0,%edx
  401040:	83 c2 01             	add    $0x1,%edx
  401043:	48 98                	cltq   
  401045:	8b 04 85 e0 2a 40 00 	mov    0x402ae0(,%rax,4),%eax
  40104c:	01 c1                	add    %eax,%ecx
  40104e:	83 f8 0f             	cmp    $0xf,%eax
  401051:	75 ed                	jne    401040 <phase_4+0x41>
  401053:	89 44 24 0c          	mov    %eax,0xc(%rsp)
  401057:	83 fa 0f             	cmp    $0xf,%edx
  40105a:	75 06                	jne    401062 <phase_4+0x63>
  40105c:	3b 4c 24 08          	cmp    0x8(%rsp),%ecx
  401060:	74 05                	je     401067 <phase_4+0x68>
  401062:	e8 19 06 00 00       	callq  401680 <explode_bomb>
  401067:	48 83 c4 18          	add    $0x18,%rsp
  40106b:	c3                   	retq   

000000000040106c <func_rec>:
  40106c:	41 54                	push   %r12
  40106e:	55                   	push   %rbp
  40106f:	53                   	push   %rbx
  401070:	89 fb                	mov    %edi,%ebx
  401072:	85 ff                	test   %edi,%edi
  401074:	7e 24                	jle    40109a <func_rec+0x2e>
  401076:	89 f5                	mov    %esi,%ebp
  401078:	89 f0                	mov    %esi,%eax
  40107a:	83 ff 01             	cmp    $0x1,%edi
  40107d:	74 20                	je     40109f <func_rec+0x33>
  40107f:	8d 7f ff             	lea    -0x1(%rdi),%edi
  401082:	e8 e5 ff ff ff       	callq  40106c <func_rec>
  401087:	44 8d 24 28          	lea    (%rax,%rbp,1),%r12d
  40108b:	8d 7b fe             	lea    -0x2(%rbx),%edi
  40108e:	89 ee                	mov    %ebp,%esi
  401090:	e8 d7 ff ff ff       	callq  40106c <func_rec>
  401095:	44 01 e0             	add    %r12d,%eax
  401098:	eb 05                	jmp    40109f <func_rec+0x33>
  40109a:	b8 00 00 00 00       	mov    $0x0,%eax
  40109f:	5b                   	pop    %rbx
  4010a0:	5d                   	pop    %rbp
  4010a1:	41 5c                	pop    %r12
  4010a3:	c3                   	retq   

00000000004010a4 <phase_5>:
  4010a4:	48 83 ec 18          	sub    $0x18,%rsp
  4010a8:	48 8d 4c 24 0c       	lea    0xc(%rsp),%rcx
  4010ad:	48 8d 54 24 08       	lea    0x8(%rsp),%rdx
  4010b2:	be a9 31 40 00       	mov    $0x4031a9,%esi
  4010b7:	b8 00 00 00 00       	mov    $0x0,%eax
  4010bc:	e8 2f fb ff ff       	callq  400bf0 <__isoc99_sscanf@plt>
  4010c1:	83 f8 02             	cmp    $0x2,%eax
  4010c4:	75 0c                	jne    4010d2 <phase_5+0x2e>
  4010c6:	8b 44 24 0c          	mov    0xc(%rsp),%eax
  4010ca:	83 e8 02             	sub    $0x2,%eax
  4010cd:	83 f8 02             	cmp    $0x2,%eax
  4010d0:	76 05                	jbe    4010d7 <phase_5+0x33>
  4010d2:	e8 a9 05 00 00       	callq  401680 <explode_bomb>
  4010d7:	8b 74 24 0c          	mov    0xc(%rsp),%esi
  4010db:	bf 07 00 00 00       	mov    $0x7,%edi
  4010e0:	e8 87 ff ff ff       	callq  40106c <func_rec>
  4010e5:	3b 44 24 08          	cmp    0x8(%rsp),%eax
  4010e9:	74 05                	je     4010f0 <phase_5+0x4c>
  4010eb:	e8 90 05 00 00       	callq  401680 <explode_bomb>
  4010f0:	48 83 c4 18          	add    $0x18,%rsp
  4010f4:	c3                   	retq   

00000000004010f5 <phase_6>:
  4010f5:	41 55                	push   %r13
  4010f7:	41 54                	push   %r12
  4010f9:	55                   	push   %rbp
  4010fa:	53                   	push   %rbx
  4010fb:	48 83 ec 58          	sub    $0x58,%rsp
  4010ff:	48 8d 74 24 30       	lea    0x30(%rsp),%rsi
  401104:	e8 0d 0b 00 00       	callq  401c16 <read_six_numbers>
  401109:	4c 8d 6c 24 30       	lea    0x30(%rsp),%r13
  40110e:	41 bc 00 00 00 00    	mov    $0x0,%r12d
  401114:	4c 89 ed             	mov    %r13,%rbp
  401117:	41 8b 45 00          	mov    0x0(%r13),%eax
  40111b:	83 e8 01             	sub    $0x1,%eax
  40111e:	83 f8 05             	cmp    $0x5,%eax
  401121:	76 05                	jbe    401128 <phase_6+0x33>
  401123:	e8 58 05 00 00       	callq  401680 <explode_bomb>
  401128:	41 83 c4 01          	add    $0x1,%r12d
  40112c:	41 83 fc 06          	cmp    $0x6,%r12d
  401130:	75 07                	jne    401139 <phase_6+0x44>
  401132:	be 00 00 00 00       	mov    $0x0,%esi
  401137:	eb 42                	jmp    40117b <phase_6+0x86>
  401139:	44 89 e3             	mov    %r12d,%ebx
  40113c:	48 63 c3             	movslq %ebx,%rax
  40113f:	8b 44 84 30          	mov    0x30(%rsp,%rax,4),%eax
  401143:	39 45 00             	cmp    %eax,0x0(%rbp)
  401146:	75 05                	jne    40114d <phase_6+0x58>
  401148:	e8 33 05 00 00       	callq  401680 <explode_bomb>
  40114d:	83 c3 01             	add    $0x1,%ebx
  401150:	83 fb 05             	cmp    $0x5,%ebx
  401153:	7e e7                	jle    40113c <phase_6+0x47>
  401155:	49 83 c5 04          	add    $0x4,%r13
  401159:	eb b9                	jmp    401114 <phase_6+0x1f>
  40115b:	48 8b 52 08          	mov    0x8(%rdx),%rdx
  40115f:	83 c0 01             	add    $0x1,%eax
  401162:	39 c8                	cmp    %ecx,%eax
  401164:	75 f5                	jne    40115b <phase_6+0x66>
  401166:	eb 05                	jmp    40116d <phase_6+0x78>
  401168:	ba 60 41 60 00       	mov    $0x604160,%edx
  40116d:	48 89 14 74          	mov    %rdx,(%rsp,%rsi,2)
  401171:	48 83 c6 04          	add    $0x4,%rsi
  401175:	48 83 fe 18          	cmp    $0x18,%rsi
  401179:	74 15                	je     401190 <phase_6+0x9b>
  40117b:	8b 4c 34 30          	mov    0x30(%rsp,%rsi,1),%ecx
  40117f:	83 f9 01             	cmp    $0x1,%ecx
  401182:	7e e4                	jle    401168 <phase_6+0x73>
  401184:	b8 01 00 00 00       	mov    $0x1,%eax
  401189:	ba 60 41 60 00       	mov    $0x604160,%edx
  40118e:	eb cb                	jmp    40115b <phase_6+0x66>
  401190:	48 8b 1c 24          	mov    (%rsp),%rbx
  401194:	48 8d 44 24 08       	lea    0x8(%rsp),%rax
  401199:	48 8d 74 24 30       	lea    0x30(%rsp),%rsi
  40119e:	48 89 d9             	mov    %rbx,%rcx
  4011a1:	48 8b 10             	mov    (%rax),%rdx
  4011a4:	48 89 51 08          	mov    %rdx,0x8(%rcx)
  4011a8:	48 83 c0 08          	add    $0x8,%rax
  4011ac:	48 39 f0             	cmp    %rsi,%rax
  4011af:	74 05                	je     4011b6 <phase_6+0xc1>
  4011b1:	48 89 d1             	mov    %rdx,%rcx
  4011b4:	eb eb                	jmp    4011a1 <phase_6+0xac>
  4011b6:	48 c7 42 08 00 00 00 	movq   $0x0,0x8(%rdx)
  4011bd:	00 
  4011be:	bd 05 00 00 00       	mov    $0x5,%ebp
  4011c3:	48 8b 43 08          	mov    0x8(%rbx),%rax
  4011c7:	8b 00                	mov    (%rax),%eax
  4011c9:	39 03                	cmp    %eax,(%rbx)
  4011cb:	7e 05                	jle    4011d2 <phase_6+0xdd>
  4011cd:	e8 ae 04 00 00       	callq  401680 <explode_bomb>
  4011d2:	48 8b 5b 08          	mov    0x8(%rbx),%rbx
  4011d6:	83 ed 01             	sub    $0x1,%ebp
  4011d9:	75 e8                	jne    4011c3 <phase_6+0xce>
  4011db:	8b 05 3b 34 20 00    	mov    0x20343b(%rip),%eax        # 60461c <last>
  4011e1:	83 f8 21             	cmp    $0x21,%eax
  4011e4:	75 05                	jne    4011eb <phase_6+0xf6>
  4011e6:	e8 95 04 00 00       	callq  401680 <explode_bomb>
  4011eb:	48 83 c4 58          	add    $0x58,%rsp
  4011ef:	5b                   	pop    %rbx
  4011f0:	5d                   	pop    %rbp
  4011f1:	41 5c                	pop    %r12
  4011f3:	41 5d                	pop    %r13
  4011f5:	c3                   	retq   

00000000004011f6 <s3cret_ph4se>:
  4011f6:	41 55                	push   %r13
  4011f8:	41 54                	push   %r12
  4011fa:	55                   	push   %rbp
  4011fb:	53                   	push   %rbx
  4011fc:	48 83 ec 08          	sub    $0x8,%rsp
  401200:	e8 53 0a 00 00       	callq  401c58 <read_line>
  401205:	49 89 c5             	mov    %rax,%r13
  401208:	bb 00 00 00 00       	mov    $0x0,%ebx
  40120d:	bd 01 00 00 00       	mov    $0x1,%ebp
  401212:	41 bc 01 00 00 00    	mov    $0x1,%r12d
  401218:	41 0f b6 54 1d 00    	movzbl 0x0(%r13,%rbx,1),%edx
  40121e:	80 fa 73             	cmp    $0x73,%dl
  401221:	75 05                	jne    401228 <s3cret_ph4se+0x32>
  401223:	83 ed 01             	sub    $0x1,%ebp
  401226:	eb 25                	jmp    40124d <s3cret_ph4se+0x57>
  401228:	80 fa 62             	cmp    $0x62,%dl
  40122b:	75 06                	jne    401233 <s3cret_ph4se+0x3d>
  40122d:	41 83 ec 01          	sub    $0x1,%r12d
  401231:	eb 1a                	jmp    40124d <s3cret_ph4se+0x57>
  401233:	80 fa 61             	cmp    $0x61,%dl
  401236:	75 05                	jne    40123d <s3cret_ph4se+0x47>
  401238:	83 c5 01             	add    $0x1,%ebp
  40123b:	eb 10                	jmp    40124d <s3cret_ph4se+0x57>
  40123d:	80 fa 72             	cmp    $0x72,%dl
  401240:	75 06                	jne    401248 <s3cret_ph4se+0x52>
  401242:	41 83 c4 01          	add    $0x1,%r12d
  401246:	eb 05                	jmp    40124d <s3cret_ph4se+0x57>
  401248:	e8 33 04 00 00       	callq  401680 <explode_bomb>
  40124d:	44 89 e0             	mov    %r12d,%eax
  401250:	89 ea                	mov    %ebp,%edx
  401252:	0f b6 94 d0 20 41 60 	movzbl 0x604120(%rax,%rdx,8),%edx
  401259:	00 
  40125a:	80 fa ff             	cmp    $0xff,%dl
  40125d:	75 07                	jne    401266 <s3cret_ph4se+0x70>
  40125f:	e8 1c 04 00 00       	callq  401680 <explode_bomb>
  401264:	eb 16                	jmp    40127c <s3cret_ph4se+0x86>
  401266:	80 fa 21             	cmp    $0x21,%dl
  401269:	75 11                	jne    40127c <s3cret_ph4se+0x86>
  40126b:	bf 20 2b 40 00       	mov    $0x402b20,%edi
  401270:	e8 9b f8 ff ff       	callq  400b10 <puts@plt>
  401275:	e8 cd 03 00 00       	callq  401647 <phase_defused>
  40127a:	eb 0f                	jmp    40128b <s3cret_ph4se+0x95>
  40127c:	48 83 c3 01          	add    $0x1,%rbx
  401280:	48 83 fb 64          	cmp    $0x64,%rbx
  401284:	75 92                	jne    401218 <s3cret_ph4se+0x22>
  401286:	e8 f5 03 00 00       	callq  401680 <explode_bomb>
  40128b:	48 83 c4 08          	add    $0x8,%rsp
  40128f:	5b                   	pop    %rbx
  401290:	5d                   	pop    %rbp
  401291:	41 5c                	pop    %r12
  401293:	41 5d                	pop    %r13
  401295:	c3                   	retq   
  401296:	66 2e 0f 1f 84 00 00 	nopw   %cs:0x0(%rax,%rax,1)
  40129d:	00 00 00 

00000000004012a0 <sig_handler>:
  4012a0:	48 83 ec 08          	sub    $0x8,%rsp
  4012a4:	bf 48 2b 40 00       	mov    $0x402b48,%edi
  4012a9:	e8 62 f8 ff ff       	callq  400b10 <puts@plt>
  4012ae:	bf 03 00 00 00       	mov    $0x3,%edi
  4012b3:	e8 a8 f9 ff ff       	callq  400c60 <sleep@plt>
  4012b8:	bf cb 30 40 00       	mov    $0x4030cb,%edi
  4012bd:	b8 00 00 00 00       	mov    $0x0,%eax
  4012c2:	e8 69 f8 ff ff       	callq  400b30 <printf@plt>
  4012c7:	48 8b 3d 32 33 20 00 	mov    0x203332(%rip),%rdi        # 604600 <stdout@@GLIBC_2.2.5>
  4012ce:	e8 0d f9 ff ff       	callq  400be0 <fflush@plt>
  4012d3:	bf 01 00 00 00       	mov    $0x1,%edi
  4012d8:	e8 83 f9 ff ff       	callq  400c60 <sleep@plt>
  4012dd:	bf d3 30 40 00       	mov    $0x4030d3,%edi
  4012e2:	e8 29 f8 ff ff       	callq  400b10 <puts@plt>
  4012e7:	bf 10 00 00 00       	mov    $0x10,%edi
  4012ec:	e8 4f f9 ff ff       	callq  400c40 <exit@plt>

00000000004012f1 <invalid_phase>:
  4012f1:	48 83 ec 08          	sub    $0x8,%rsp
  4012f5:	48 89 fe             	mov    %rdi,%rsi
  4012f8:	bf db 30 40 00       	mov    $0x4030db,%edi
  4012fd:	b8 00 00 00 00       	mov    $0x0,%eax
  401302:	e8 29 f8 ff ff       	callq  400b30 <printf@plt>
  401307:	bf 08 00 00 00       	mov    $0x8,%edi
  40130c:	e8 2f f9 ff ff       	callq  400c40 <exit@plt>

0000000000401311 <string_length>:
  401311:	b8 00 00 00 00       	mov    $0x0,%eax
  401316:	eb 0e                	jmp    401326 <string_length+0x15>
  401318:	48 83 c7 01          	add    $0x1,%rdi
  40131c:	83 c0 01             	add    $0x1,%eax
  40131f:	3d 10 27 00 00       	cmp    $0x2710,%eax
  401324:	74 05                	je     40132b <string_length+0x1a>
  401326:	80 3f 00             	cmpb   $0x0,(%rdi)
  401329:	75 ed                	jne    401318 <string_length+0x7>
  40132b:	f3 c3                	repz retq 

000000000040132d <strings_not_equal>:
  40132d:	41 54                	push   %r12
  40132f:	55                   	push   %rbp
  401330:	53                   	push   %rbx
  401331:	48 89 fb             	mov    %rdi,%rbx
  401334:	48 89 f5             	mov    %rsi,%rbp
  401337:	e8 d5 ff ff ff       	callq  401311 <string_length>
  40133c:	41 89 c4             	mov    %eax,%r12d
  40133f:	48 89 ef             	mov    %rbp,%rdi
  401342:	e8 ca ff ff ff       	callq  401311 <string_length>
  401347:	ba 01 00 00 00       	mov    $0x1,%edx
  40134c:	41 39 c4             	cmp    %eax,%r12d
  40134f:	75 3f                	jne    401390 <strings_not_equal+0x63>
  401351:	0f b6 03             	movzbl (%rbx),%eax
  401354:	84 c0                	test   %al,%al
  401356:	74 25                	je     40137d <strings_not_equal+0x50>
  401358:	3a 45 00             	cmp    0x0(%rbp),%al
  40135b:	74 0a                	je     401367 <strings_not_equal+0x3a>
  40135d:	0f 1f 00             	nopl   (%rax)
  401360:	eb 22                	jmp    401384 <strings_not_equal+0x57>
  401362:	3a 45 00             	cmp    0x0(%rbp),%al
  401365:	75 24                	jne    40138b <strings_not_equal+0x5e>
  401367:	48 83 c3 01          	add    $0x1,%rbx
  40136b:	48 83 c5 01          	add    $0x1,%rbp
  40136f:	0f b6 03             	movzbl (%rbx),%eax
  401372:	84 c0                	test   %al,%al
  401374:	75 ec                	jne    401362 <strings_not_equal+0x35>
  401376:	ba 00 00 00 00       	mov    $0x0,%edx
  40137b:	eb 13                	jmp    401390 <strings_not_equal+0x63>
  40137d:	ba 00 00 00 00       	mov    $0x0,%edx
  401382:	eb 0c                	jmp    401390 <strings_not_equal+0x63>
  401384:	ba 01 00 00 00       	mov    $0x1,%edx
  401389:	eb 05                	jmp    401390 <strings_not_equal+0x63>
  40138b:	ba 01 00 00 00       	mov    $0x1,%edx
  401390:	89 d0                	mov    %edx,%eax
  401392:	5b                   	pop    %rbx
  401393:	5d                   	pop    %rbp
  401394:	41 5c                	pop    %r12
  401396:	c3                   	retq   

0000000000401397 <initialize_bomb>:
  401397:	53                   	push   %rbx
  401398:	48 81 ec 40 20 00 00 	sub    $0x2040,%rsp
  40139f:	be a0 12 40 00       	mov    $0x4012a0,%esi
  4013a4:	bf 02 00 00 00       	mov    $0x2,%edi
  4013a9:	e8 e2 f7 ff ff       	callq  400b90 <signal@plt>
  4013ae:	be 40 00 00 00       	mov    $0x40,%esi
  4013b3:	48 8d bc 24 00 20 00 	lea    0x2000(%rsp),%rdi
  4013ba:	00 
  4013bb:	e8 60 f8 ff ff       	callq  400c20 <gethostname@plt>
  4013c0:	85 c0                	test   %eax,%eax
  4013c2:	75 13                	jne    4013d7 <initialize_bomb+0x40>
  4013c4:	48 8b 3d 35 2e 20 00 	mov    0x202e35(%rip),%rdi        # 604200 <host_table>
  4013cb:	bb 08 42 60 00       	mov    $0x604208,%ebx
  4013d0:	48 85 ff             	test   %rdi,%rdi
  4013d3:	75 16                	jne    4013eb <initialize_bomb+0x54>
  4013d5:	eb 50                	jmp    401427 <initialize_bomb+0x90>
  4013d7:	bf 80 2b 40 00       	mov    $0x402b80,%edi
  4013dc:	e8 2f f7 ff ff       	callq  400b10 <puts@plt>
  4013e1:	bf 08 00 00 00       	mov    $0x8,%edi
  4013e6:	e8 55 f8 ff ff       	callq  400c40 <exit@plt>
  4013eb:	48 8d b4 24 00 20 00 	lea    0x2000(%rsp),%rsi
  4013f2:	00 
  4013f3:	e8 e8 f6 ff ff       	callq  400ae0 <strcasecmp@plt>
  4013f8:	85 c0                	test   %eax,%eax
  4013fa:	74 3f                	je     40143b <initialize_bomb+0xa4>
  4013fc:	48 83 c3 08          	add    $0x8,%rbx
  401400:	48 8b 7b f8          	mov    -0x8(%rbx),%rdi
  401404:	48 85 ff             	test   %rdi,%rdi
  401407:	75 e2                	jne    4013eb <initialize_bomb+0x54>
  401409:	eb 1c                	jmp    401427 <initialize_bomb+0x90>
  40140b:	48 89 e6             	mov    %rsp,%rsi
  40140e:	bf ec 30 40 00       	mov    $0x4030ec,%edi
  401413:	b8 00 00 00 00       	mov    $0x0,%eax
  401418:	e8 13 f7 ff ff       	callq  400b30 <printf@plt>
  40141d:	bf 08 00 00 00       	mov    $0x8,%edi
  401422:	e8 19 f8 ff ff       	callq  400c40 <exit@plt>
  401427:	bf b8 2b 40 00       	mov    $0x402bb8,%edi
  40142c:	e8 df f6 ff ff       	callq  400b10 <puts@plt>
  401431:	bf 08 00 00 00       	mov    $0x8,%edi
  401436:	e8 05 f8 ff ff       	callq  400c40 <exit@plt>
  40143b:	48 89 e7             	mov    %rsp,%rdi
  40143e:	e8 5e 12 00 00       	callq  4026a1 <init_driver>
  401443:	85 c0                	test   %eax,%eax
  401445:	78 c4                	js     40140b <initialize_bomb+0x74>
  401447:	48 81 c4 40 20 00 00 	add    $0x2040,%rsp
  40144e:	5b                   	pop    %rbx
  40144f:	c3                   	retq   

0000000000401450 <welcome_message>:
  401450:	83 ff 01             	cmp    $0x1,%edi
  401453:	0f 85 a8 00 00 00    	jne    401501 <welcome_message+0xb1>
  401459:	48 83 ec 08          	sub    $0x8,%rsp
  40145d:	bf f0 2b 40 00       	mov    $0x402bf0,%edi
  401462:	e8 a9 f6 ff ff       	callq  400b10 <puts@plt>
  401467:	bf 30 2c 40 00       	mov    $0x402c30,%edi
  40146c:	e8 9f f6 ff ff       	callq  400b10 <puts@plt>
  401471:	bf 70 2c 40 00       	mov    $0x402c70,%edi
  401476:	e8 95 f6 ff ff       	callq  400b10 <puts@plt>
  40147b:	bf b0 2c 40 00       	mov    $0x402cb0,%edi
  401480:	e8 8b f6 ff ff       	callq  400b10 <puts@plt>
  401485:	bf f0 2c 40 00       	mov    $0x402cf0,%edi
  40148a:	e8 81 f6 ff ff       	callq  400b10 <puts@plt>
  40148f:	bf 30 2d 40 00       	mov    $0x402d30,%edi
  401494:	e8 77 f6 ff ff       	callq  400b10 <puts@plt>
  401499:	bf 70 2d 40 00       	mov    $0x402d70,%edi
  40149e:	e8 6d f6 ff ff       	callq  400b10 <puts@plt>
  4014a3:	bf a8 2d 40 00       	mov    $0x402da8,%edi
  4014a8:	e8 63 f6 ff ff       	callq  400b10 <puts@plt>
  4014ad:	bf e0 2d 40 00       	mov    $0x402de0,%edi
  4014b2:	e8 59 f6 ff ff       	callq  400b10 <puts@plt>
  4014b7:	bf 20 2e 40 00       	mov    $0x402e20,%edi
  4014bc:	e8 4f f6 ff ff       	callq  400b10 <puts@plt>
  4014c1:	bf 60 2e 40 00       	mov    $0x402e60,%edi
  4014c6:	e8 45 f6 ff ff       	callq  400b10 <puts@plt>
  4014cb:	bf a0 2e 40 00       	mov    $0x402ea0,%edi
  4014d0:	e8 3b f6 ff ff       	callq  400b10 <puts@plt>
  4014d5:	bf e0 2e 40 00       	mov    $0x402ee0,%edi
  4014da:	e8 31 f6 ff ff       	callq  400b10 <puts@plt>
  4014df:	bf 20 2f 40 00       	mov    $0x402f20,%edi
  4014e4:	e8 27 f6 ff ff       	callq  400b10 <puts@plt>
  4014e9:	bf 60 2f 40 00       	mov    $0x402f60,%edi
  4014ee:	e8 1d f6 ff ff       	callq  400b10 <puts@plt>
  4014f3:	bf a0 2f 40 00       	mov    $0x402fa0,%edi
  4014f8:	e8 13 f6 ff ff       	callq  400b10 <puts@plt>
  4014fd:	48 83 c4 08          	add    $0x8,%rsp
  401501:	f3 c3                	repz retq 

0000000000401503 <initialize_bomb_solve>:
  401503:	f3 c3                	repz retq 

0000000000401505 <blank_line>:
  401505:	55                   	push   %rbp
  401506:	53                   	push   %rbx
  401507:	48 83 ec 08          	sub    $0x8,%rsp
  40150b:	48 89 fb             	mov    %rdi,%rbx
  40150e:	eb 17                	jmp    401527 <blank_line+0x22>
  401510:	e8 5b f7 ff ff       	callq  400c70 <__ctype_b_loc@plt>
  401515:	48 83 c3 01          	add    $0x1,%rbx
  401519:	48 0f be ed          	movsbq %bpl,%rbp
  40151d:	48 8b 00             	mov    (%rax),%rax
  401520:	f6 44 68 01 20       	testb  $0x20,0x1(%rax,%rbp,2)
  401525:	74 0f                	je     401536 <blank_line+0x31>
  401527:	0f b6 2b             	movzbl (%rbx),%ebp
  40152a:	40 84 ed             	test   %bpl,%bpl
  40152d:	75 e1                	jne    401510 <blank_line+0xb>
  40152f:	b8 01 00 00 00       	mov    $0x1,%eax
  401534:	eb 05                	jmp    40153b <blank_line+0x36>
  401536:	b8 00 00 00 00       	mov    $0x0,%eax
  40153b:	48 83 c4 08          	add    $0x8,%rsp
  40153f:	5b                   	pop    %rbx
  401540:	5d                   	pop    %rbp
  401541:	c3                   	retq   

0000000000401542 <skip>:
  401542:	53                   	push   %rbx
  401543:	48 63 05 d6 30 20 00 	movslq 0x2030d6(%rip),%rax        # 604620 <num_input_strings>
  40154a:	48 8d 3c 80          	lea    (%rax,%rax,4),%rdi
  40154e:	48 c1 e7 04          	shl    $0x4,%rdi
  401552:	48 81 c7 40 46 60 00 	add    $0x604640,%rdi
  401559:	48 8b 15 c8 30 20 00 	mov    0x2030c8(%rip),%rdx        # 604628 <infile>
  401560:	be 50 00 00 00       	mov    $0x50,%esi
  401565:	e8 16 f6 ff ff       	callq  400b80 <fgets@plt>
  40156a:	48 89 c3             	mov    %rax,%rbx
  40156d:	48 85 c0             	test   %rax,%rax
  401570:	74 0c                	je     40157e <skip+0x3c>
  401572:	48 89 c7             	mov    %rax,%rdi
  401575:	e8 8b ff ff ff       	callq  401505 <blank_line>
  40157a:	85 c0                	test   %eax,%eax
  40157c:	75 c5                	jne    401543 <skip+0x1>
  40157e:	48 89 d8             	mov    %rbx,%rax
  401581:	5b                   	pop    %rbx
  401582:	c3                   	retq   

0000000000401583 <send_msg>:
  401583:	48 81 ec 08 40 00 00 	sub    $0x4008,%rsp
  40158a:	89 fe                	mov    %edi,%esi
  40158c:	44 8b 05 8d 30 20 00 	mov    0x20308d(%rip),%r8d        # 604620 <num_input_strings>
  401593:	41 8d 40 ff          	lea    -0x1(%r8),%eax
  401597:	48 98                	cltq   
  401599:	4c 8d 0c 80          	lea    (%rax,%rax,4),%r9
  40159d:	49 c1 e1 04          	shl    $0x4,%r9
  4015a1:	49 81 c1 40 46 60 00 	add    $0x604640,%r9
  4015a8:	4c 89 cf             	mov    %r9,%rdi
  4015ab:	b8 00 00 00 00       	mov    $0x0,%eax
  4015b0:	48 c7 c1 ff ff ff ff 	mov    $0xffffffffffffffff,%rcx
  4015b7:	f2 ae                	repnz scas %es:(%rdi),%al
  4015b9:	48 f7 d1             	not    %rcx
  4015bc:	48 83 c1 63          	add    $0x63,%rcx
  4015c0:	48 81 f9 00 20 00 00 	cmp    $0x2000,%rcx
  4015c7:	76 14                	jbe    4015dd <send_msg+0x5a>
  4015c9:	bf e0 2f 40 00       	mov    $0x402fe0,%edi
  4015ce:	e8 5d f5 ff ff       	callq  400b30 <printf@plt>
  4015d3:	bf 08 00 00 00       	mov    $0x8,%edi
  4015d8:	e8 63 f6 ff ff       	callq  400c40 <exit@plt>
  4015dd:	85 f6                	test   %esi,%esi
  4015df:	b8 06 31 40 00       	mov    $0x403106,%eax
  4015e4:	b9 0e 31 40 00       	mov    $0x40310e,%ecx
  4015e9:	48 0f 45 c8          	cmovne %rax,%rcx
  4015ed:	8b 15 ed 2b 20 00    	mov    0x202bed(%rip),%edx        # 6041e0 <bomb_id>
  4015f3:	be 17 31 40 00       	mov    $0x403117,%esi
  4015f8:	48 8d bc 24 00 20 00 	lea    0x2000(%rsp),%rdi
  4015ff:	00 
  401600:	b8 00 00 00 00       	mov    $0x0,%eax
  401605:	e8 26 f6 ff ff       	callq  400c30 <sprintf@plt>
  40160a:	49 89 e0             	mov    %rsp,%r8
  40160d:	b9 00 00 00 00       	mov    $0x0,%ecx
  401612:	48 8d 94 24 00 20 00 	lea    0x2000(%rsp),%rdx
  401619:	00 
  40161a:	be c0 41 60 00       	mov    $0x6041c0,%esi
  40161f:	bf d5 41 60 00       	mov    $0x6041d5,%edi
  401624:	e8 16 12 00 00       	callq  40283f <driver_post>
  401629:	85 c0                	test   %eax,%eax
  40162b:	79 12                	jns    40163f <send_msg+0xbc>
  40162d:	48 89 e7             	mov    %rsp,%rdi
  401630:	e8 db f4 ff ff       	callq  400b10 <puts@plt>
  401635:	bf 00 00 00 00       	mov    $0x0,%edi
  40163a:	e8 01 f6 ff ff       	callq  400c40 <exit@plt>
  40163f:	48 81 c4 08 40 00 00 	add    $0x4008,%rsp
  401646:	c3                   	retq   

0000000000401647 <phase_defused>:
  401647:	48 83 ec 08          	sub    $0x8,%rsp
  40164b:	bf 01 00 00 00       	mov    $0x1,%edi
  401650:	e8 2e ff ff ff       	callq  401583 <send_msg>
  401655:	83 3d c4 2f 20 00 05 	cmpl   $0x5,0x202fc4(%rip)        # 604620 <num_input_strings>
  40165c:	7e 1d                	jle    40167b <phase_defused+0x34>
  40165e:	83 3d b7 2f 20 00 21 	cmpl   $0x21,0x202fb7(%rip)        # 60461c <last>
  401665:	74 14                	je     40167b <phase_defused+0x34>
  401667:	bf 08 30 40 00       	mov    $0x403008,%edi
  40166c:	e8 9f f4 ff ff       	callq  400b10 <puts@plt>
  401671:	bf 38 30 40 00       	mov    $0x403038,%edi
  401676:	e8 95 f4 ff ff       	callq  400b10 <puts@plt>
  40167b:	48 83 c4 08          	add    $0x8,%rsp
  40167f:	c3                   	retq   

0000000000401680 <explode_bomb>:
  401680:	48 81 ec d8 00 00 00 	sub    $0xd8,%rsp
  401687:	83 3d 92 2f 20 00 06 	cmpl   $0x6,0x202f92(%rip)        # 604620 <num_input_strings>
  40168e:	77 60                	ja     4016f0 <explode_bomb+0x70>
  401690:	8b 05 8a 2f 20 00    	mov    0x202f8a(%rip),%eax        # 604620 <num_input_strings>
  401696:	ff 24 c5 00 33 40 00 	jmpq   *0x403300(,%rax,8)
  40169d:	bf 23 31 40 00       	mov    $0x403123,%edi
  4016a2:	e8 69 f4 ff ff       	callq  400b10 <puts@plt>
  4016a7:	eb 47                	jmp    4016f0 <explode_bomb+0x70>
  4016a9:	bf 80 30 40 00       	mov    $0x403080,%edi
  4016ae:	e8 5d f4 ff ff       	callq  400b10 <puts@plt>
  4016b3:	eb 3b                	jmp    4016f0 <explode_bomb+0x70>
  4016b5:	bf 28 31 40 00       	mov    $0x403128,%edi
  4016ba:	e8 51 f4 ff ff       	callq  400b10 <puts@plt>
  4016bf:	90                   	nop
  4016c0:	eb 2e                	jmp    4016f0 <explode_bomb+0x70>
  4016c2:	bf 3d 31 40 00       	mov    $0x40313d,%edi
  4016c7:	e8 44 f4 ff ff       	callq  400b10 <puts@plt>
  4016cc:	eb 22                	jmp    4016f0 <explode_bomb+0x70>
  4016ce:	bf 53 31 40 00       	mov    $0x403153,%edi
  4016d3:	e8 38 f4 ff ff       	callq  400b10 <puts@plt>
  4016d8:	eb 16                	jmp    4016f0 <explode_bomb+0x70>
  4016da:	bf 6a 31 40 00       	mov    $0x40316a,%edi
  4016df:	e8 2c f4 ff ff       	callq  400b10 <puts@plt>
  4016e4:	eb 0a                	jmp    4016f0 <explode_bomb+0x70>
  4016e6:	bf 73 31 40 00       	mov    $0x403173,%edi
  4016eb:	e8 20 f4 ff ff       	callq  400b10 <puts@plt>
  4016f0:	48 89 e7             	mov    %rsp,%rdi
  4016f3:	b9 19 00 00 00       	mov    $0x19,%ecx
  4016f8:	b8 00 00 00 00       	mov    $0x0,%eax
  4016fd:	f3 48 ab             	rep stos %rax,%es:(%rdi)
  401700:	c6 04 24 53          	movb   $0x53,(%rsp)
  401704:	c6 44 24 01 6f       	movb   $0x6f,0x1(%rsp)
  401709:	c6 44 24 02 20       	movb   $0x20,0x2(%rsp)
  40170e:	c6 44 24 03 79       	movb   $0x79,0x3(%rsp)
  401713:	c6 44 24 04 6f       	movb   $0x6f,0x4(%rsp)
  401718:	c6 44 24 05 75       	movb   $0x75,0x5(%rsp)
  40171d:	c6 44 24 06 20       	movb   $0x20,0x6(%rsp)
  401722:	c6 44 24 07 6d       	movb   $0x6d,0x7(%rsp)
  401727:	c6 44 24 08 61       	movb   $0x61,0x8(%rsp)
  40172c:	c6 44 24 09 64       	movb   $0x64,0x9(%rsp)
  401731:	c6 44 24 0a 65       	movb   $0x65,0xa(%rsp)
  401736:	c6 44 24 0b 20       	movb   $0x20,0xb(%rsp)
  40173b:	c6 44 24 0c 69       	movb   $0x69,0xc(%rsp)
  401740:	c6 44 24 0d 74       	movb   $0x74,0xd(%rsp)
  401745:	c6 44 24 0e 20       	movb   $0x20,0xe(%rsp)
  40174a:	c6 44 24 0f 74       	movb   $0x74,0xf(%rsp)
  40174f:	c6 44 24 10 6f       	movb   $0x6f,0x10(%rsp)
  401754:	c6 44 24 11 20       	movb   $0x20,0x11(%rsp)
  401759:	c6 44 24 12 74       	movb   $0x74,0x12(%rsp)
  40175e:	c6 44 24 13 68       	movb   $0x68,0x13(%rsp)
  401763:	c6 44 24 14 65       	movb   $0x65,0x14(%rsp)
  401768:	c6 44 24 15 20       	movb   $0x20,0x15(%rsp)
  40176d:	c6 44 24 16 73       	movb   $0x73,0x16(%rsp)
  401772:	c6 44 24 17 33       	movb   $0x33,0x17(%rsp)
  401777:	c6 44 24 18 63       	movb   $0x63,0x18(%rsp)
  40177c:	c6 44 24 19 72       	movb   $0x72,0x19(%rsp)
  401781:	c6 44 24 1a 65       	movb   $0x65,0x1a(%rsp)
  401786:	c6 44 24 1b 74       	movb   $0x74,0x1b(%rsp)
  40178b:	c6 44 24 1c 20       	movb   $0x20,0x1c(%rsp)
  401790:	c6 44 24 1d 70       	movb   $0x70,0x1d(%rsp)
  401795:	c6 44 24 1e 68       	movb   $0x68,0x1e(%rsp)
  40179a:	c6 44 24 1f 61       	movb   $0x61,0x1f(%rsp)
  40179f:	c6 44 24 20 73       	movb   $0x73,0x20(%rsp)
  4017a4:	c6 44 24 21 65       	movb   $0x65,0x21(%rsp)
  4017a9:	c6 44 24 22 2e       	movb   $0x2e,0x22(%rsp)
  4017ae:	c6 44 24 23 20       	movb   $0x20,0x23(%rsp)
  4017b3:	c6 44 24 24 20       	movb   $0x20,0x24(%rsp)
  4017b8:	c6 44 24 25 4e       	movb   $0x4e,0x25(%rsp)
  4017bd:	c6 44 24 26 69       	movb   $0x69,0x26(%rsp)
  4017c2:	c6 44 24 27 63       	movb   $0x63,0x27(%rsp)
  4017c7:	c6 44 24 28 65       	movb   $0x65,0x28(%rsp)
  4017cc:	c6 44 24 29 2c       	movb   $0x2c,0x29(%rsp)
  4017d1:	c6 44 24 2a 20       	movb   $0x20,0x2a(%rsp)
  4017d6:	c6 44 24 2b 62       	movb   $0x62,0x2b(%rsp)
  4017db:	c6 44 24 2c 75       	movb   $0x75,0x2c(%rsp)
  4017e0:	c6 44 24 2d 74       	movb   $0x74,0x2d(%rsp)
  4017e5:	c6 44 24 2e 0a       	movb   $0xa,0x2e(%rsp)
  4017ea:	c6 44 24 2f 64       	movb   $0x64,0x2f(%rsp)
  4017ef:	c6 44 24 30 6f       	movb   $0x6f,0x30(%rsp)
  4017f4:	c6 44 24 31 6e       	movb   $0x6e,0x31(%rsp)
  4017f9:	c6 44 24 32 27       	movb   $0x27,0x32(%rsp)
  4017fe:	c6 44 24 33 74       	movb   $0x74,0x33(%rsp)
  401803:	c6 44 24 34 20       	movb   $0x20,0x34(%rsp)
  401808:	c6 44 24 35 74       	movb   $0x74,0x35(%rsp)
  40180d:	c6 44 24 36 65       	movb   $0x65,0x36(%rsp)
  401812:	c6 44 24 37 6c       	movb   $0x6c,0x37(%rsp)
  401817:	c6 44 24 38 6c       	movb   $0x6c,0x38(%rsp)
  40181c:	c6 44 24 39 20       	movb   $0x20,0x39(%rsp)
  401821:	c6 44 24 3a 61       	movb   $0x61,0x3a(%rsp)
  401826:	c6 44 24 3b 6e       	movb   $0x6e,0x3b(%rsp)
  40182b:	c6 44 24 3c 79       	movb   $0x79,0x3c(%rsp)
  401830:	c6 44 24 3d 6f       	movb   $0x6f,0x3d(%rsp)
  401835:	c6 44 24 3e 6e       	movb   $0x6e,0x3e(%rsp)
  40183a:	c6 44 24 3f 65       	movb   $0x65,0x3f(%rsp)
  40183f:	c6 44 24 40 20       	movb   $0x20,0x40(%rsp)
  401844:	c6 44 24 41 61       	movb   $0x61,0x41(%rsp)
  401849:	c6 44 24 42 62       	movb   $0x62,0x42(%rsp)
  40184e:	c6 44 24 43 6f       	movb   $0x6f,0x43(%rsp)
  401853:	c6 44 24 44 75       	movb   $0x75,0x44(%rsp)
  401858:	c6 44 24 45 74       	movb   $0x74,0x45(%rsp)
  40185d:	c6 44 24 46 20       	movb   $0x20,0x46(%rsp)
  401862:	c6 44 24 47 69       	movb   $0x69,0x47(%rsp)
  401867:	c6 44 24 48 74       	movb   $0x74,0x48(%rsp)
  40186c:	c6 44 24 49 20       	movb   $0x20,0x49(%rsp)
  401871:	c6 44 24 4a 28       	movb   $0x28,0x4a(%rsp)
  401876:	c6 44 24 4b 65       	movb   $0x65,0x4b(%rsp)
  40187b:	c6 44 24 4c 73       	movb   $0x73,0x4c(%rsp)
  401880:	c6 44 24 4d 70       	movb   $0x70,0x4d(%rsp)
  401885:	c6 44 24 4e 65       	movb   $0x65,0x4e(%rsp)
  40188a:	c6 44 24 4f 63       	movb   $0x63,0x4f(%rsp)
  40188f:	c6 44 24 50 69       	movb   $0x69,0x50(%rsp)
  401894:	c6 44 24 51 61       	movb   $0x61,0x51(%rsp)
  401899:	c6 44 24 52 6c       	movb   $0x6c,0x52(%rsp)
  40189e:	c6 44 24 53 6c       	movb   $0x6c,0x53(%rsp)
  4018a3:	c6 44 24 54 79       	movb   $0x79,0x54(%rsp)
  4018a8:	c6 44 24 55 20       	movb   $0x20,0x55(%rsp)
  4018ad:	c6 44 24 56 6f       	movb   $0x6f,0x56(%rsp)
  4018b2:	c6 44 24 57 6e       	movb   $0x6e,0x57(%rsp)
  4018b7:	c6 44 24 58 20       	movb   $0x20,0x58(%rsp)
  4018bc:	c6 44 24 59 50       	movb   $0x50,0x59(%rsp)
  4018c1:	c6 44 24 5a 69       	movb   $0x69,0x5a(%rsp)
  4018c6:	c6 44 24 5b 61       	movb   $0x61,0x5b(%rsp)
  4018cb:	c6 44 24 5c 7a       	movb   $0x7a,0x5c(%rsp)
  4018d0:	c6 44 24 5d 7a       	movb   $0x7a,0x5d(%rsp)
  4018d5:	c6 44 24 5e 61       	movb   $0x61,0x5e(%rsp)
  4018da:	c6 44 24 5f 29       	movb   $0x29,0x5f(%rsp)
  4018df:	c6 44 24 60 2e       	movb   $0x2e,0x60(%rsp)
  4018e4:	c6 44 24 61 0a       	movb   $0xa,0x61(%rsp)
  4018e9:	c6 44 24 62 49       	movb   $0x49,0x62(%rsp)
  4018ee:	c6 44 24 63 66       	movb   $0x66,0x63(%rsp)
  4018f3:	c6 44 24 64 20       	movb   $0x20,0x64(%rsp)
  4018f8:	c6 44 24 65 79       	movb   $0x79,0x65(%rsp)
  4018fd:	c6 44 24 66 6f       	movb   $0x6f,0x66(%rsp)
  401902:	c6 44 24 67 75       	movb   $0x75,0x67(%rsp)
  401907:	c6 44 24 68 20       	movb   $0x20,0x68(%rsp)
  40190c:	c6 44 24 69 64       	movb   $0x64,0x69(%rsp)
  401911:	c6 44 24 6a 6f       	movb   $0x6f,0x6a(%rsp)
  401916:	c6 44 24 6b 20       	movb   $0x20,0x6b(%rsp)
  40191b:	c6 44 24 6c 79       	movb   $0x79,0x6c(%rsp)
  401920:	c6 44 24 6d 6f       	movb   $0x6f,0x6d(%rsp)
  401925:	c6 44 24 6e 75       	movb   $0x75,0x6e(%rsp)
  40192a:	c6 44 24 6f 20       	movb   $0x20,0x6f(%rsp)
  40192f:	c6 44 24 70 77       	movb   $0x77,0x70(%rsp)
  401934:	c6 44 24 71 6f       	movb   $0x6f,0x71(%rsp)
  401939:	c6 44 24 72 6e       	movb   $0x6e,0x72(%rsp)
  40193e:	c6 44 24 73 27       	movb   $0x27,0x73(%rsp)
  401943:	c6 44 24 74 74       	movb   $0x74,0x74(%rsp)
  401948:	c6 44 24 75 20       	movb   $0x20,0x75(%rsp)
  40194d:	c6 44 24 76 67       	movb   $0x67,0x76(%rsp)
  401952:	c6 44 24 77 65       	movb   $0x65,0x77(%rsp)
  401957:	c6 44 24 78 74       	movb   $0x74,0x78(%rsp)
  40195c:	c6 44 24 79 20       	movb   $0x20,0x79(%rsp)
  401961:	c6 44 24 7a 61       	movb   $0x61,0x7a(%rsp)
  401966:	c6 44 24 7b 6e       	movb   $0x6e,0x7b(%rsp)
  40196b:	c6 44 24 7c 79       	movb   $0x79,0x7c(%rsp)
  401970:	c6 44 24 7d 20       	movb   $0x20,0x7d(%rsp)
  401975:	c6 44 24 7e 65       	movb   $0x65,0x7e(%rsp)
  40197a:	c6 44 24 7f 78       	movb   $0x78,0x7f(%rsp)
  40197f:	c6 84 24 80 00 00 00 	movb   $0x74,0x80(%rsp)
  401986:	74 
  401987:	c6 84 24 81 00 00 00 	movb   $0x72,0x81(%rsp)
  40198e:	72 
  40198f:	c6 84 24 82 00 00 00 	movb   $0x61,0x82(%rsp)
  401996:	61 
  401997:	c6 84 24 83 00 00 00 	movb   $0x20,0x83(%rsp)
  40199e:	20 
  40199f:	c6 84 24 84 00 00 00 	movb   $0x63,0x84(%rsp)
  4019a6:	63 
  4019a7:	c6 84 24 85 00 00 00 	movb   $0x72,0x85(%rsp)
  4019ae:	72 
  4019af:	c6 84 24 86 00 00 00 	movb   $0x65,0x86(%rsp)
  4019b6:	65 
  4019b7:	c6 84 24 87 00 00 00 	movb   $0x64,0x87(%rsp)
  4019be:	64 
  4019bf:	c6 84 24 88 00 00 00 	movb   $0x69,0x88(%rsp)
  4019c6:	69 
  4019c7:	c6 84 24 89 00 00 00 	movb   $0x74,0x89(%rsp)
  4019ce:	74 
  4019cf:	c6 84 24 8a 00 00 00 	movb   $0x21,0x8a(%rsp)
  4019d6:	21 
  4019d7:	c6 84 24 8b 00 00 00 	movb   $0x20,0x8b(%rsp)
  4019de:	20 
  4019df:	c6 84 24 8c 00 00 00 	movb   $0x61,0x8c(%rsp)
  4019e6:	61 
  4019e7:	c6 84 24 8d 00 00 00 	movb   $0x6e,0x8d(%rsp)
  4019ee:	6e 
  4019ef:	c6 84 24 8e 00 00 00 	movb   $0x79,0x8e(%rsp)
  4019f6:	79 
  4019f7:	c6 84 24 8f 00 00 00 	movb   $0x77,0x8f(%rsp)
  4019fe:	77 
  4019ff:	c6 84 24 90 00 00 00 	movb   $0x61,0x90(%rsp)
  401a06:	61 
  401a07:	c6 84 24 91 00 00 00 	movb   $0x79,0x91(%rsp)
  401a0e:	79 
  401a0f:	c6 84 24 92 00 00 00 	movb   $0x73,0x92(%rsp)
  401a16:	73 
  401a17:	c6 84 24 93 00 00 00 	movb   $0x2c,0x93(%rsp)
  401a1e:	2c 
  401a1f:	c6 84 24 94 00 00 00 	movb   $0xa,0x94(%rsp)
  401a26:	0a 
  401a27:	c6 84 24 95 00 00 00 	movb   $0x66,0x95(%rsp)
  401a2e:	66 
  401a2f:	c6 84 24 96 00 00 00 	movb   $0x69,0x96(%rsp)
  401a36:	69 
  401a37:	c6 84 24 97 00 00 00 	movb   $0x6e,0x97(%rsp)
  401a3e:	6e 
  401a3f:	c6 84 24 98 00 00 00 	movb   $0x64,0x98(%rsp)
  401a46:	64 
  401a47:	c6 84 24 99 00 00 00 	movb   $0x69,0x99(%rsp)
  401a4e:	69 
  401a4f:	c6 84 24 9a 00 00 00 	movb   $0x6e,0x9a(%rsp)
  401a56:	6e 
  401a57:	c6 84 24 9b 00 00 00 	movb   $0x67,0x9b(%rsp)
  401a5e:	67 
  401a5f:	c6 84 24 9c 00 00 00 	movb   $0x20,0x9c(%rsp)
  401a66:	20 
  401a67:	c6 84 24 9d 00 00 00 	movb   $0x69,0x9d(%rsp)
  401a6e:	69 
  401a6f:	c6 84 24 9e 00 00 00 	movb   $0x74,0x9e(%rsp)
  401a76:	74 
  401a77:	c6 84 24 9f 00 00 00 	movb   $0x20,0x9f(%rsp)
  401a7e:	20 
  401a7f:	c6 84 24 a0 00 00 00 	movb   $0x61,0xa0(%rsp)
  401a86:	61 
  401a87:	c6 84 24 a1 00 00 00 	movb   $0x6e,0xa1(%rsp)
  401a8e:	6e 
  401a8f:	c6 84 24 a2 00 00 00 	movb   $0x64,0xa2(%rsp)
  401a96:	64 
  401a97:	c6 84 24 a3 00 00 00 	movb   $0x20,0xa3(%rsp)
  401a9e:	20 
  401a9f:	c6 84 24 a4 00 00 00 	movb   $0x73,0xa4(%rsp)
  401aa6:	73 
  401aa7:	c6 84 24 a5 00 00 00 	movb   $0x6f,0xa5(%rsp)
  401aae:	6f 
  401aaf:	c6 84 24 a6 00 00 00 	movb   $0x6c,0xa6(%rsp)
  401ab6:	6c 
  401ab7:	c6 84 24 a7 00 00 00 	movb   $0x76,0xa7(%rsp)
  401abe:	76 
  401abf:	c6 84 24 a8 00 00 00 	movb   $0x69,0xa8(%rsp)
  401ac6:	69 
  401ac7:	c6 84 24 a9 00 00 00 	movb   $0x6e,0xa9(%rsp)
  401ace:	6e 
  401acf:	c6 84 24 aa 00 00 00 	movb   $0x67,0xaa(%rsp)
  401ad6:	67 
  401ad7:	c6 84 24 ab 00 00 00 	movb   $0x20,0xab(%rsp)
  401ade:	20 
  401adf:	c6 84 24 ac 00 00 00 	movb   $0x69,0xac(%rsp)
  401ae6:	69 
  401ae7:	c6 84 24 ad 00 00 00 	movb   $0x74,0xad(%rsp)
  401aee:	74 
  401aef:	c6 84 24 ae 00 00 00 	movb   $0x20,0xae(%rsp)
  401af6:	20 
  401af7:	c6 84 24 af 00 00 00 	movb   $0x61,0xaf(%rsp)
  401afe:	61 
  401aff:	c6 84 24 b0 00 00 00 	movb   $0x72,0xb0(%rsp)
  401b06:	72 
  401b07:	c6 84 24 b1 00 00 00 	movb   $0x65,0xb1(%rsp)
  401b0e:	65 
  401b0f:	c6 84 24 b2 00 00 00 	movb   $0x20,0xb2(%rsp)
  401b16:	20 
  401b17:	c6 84 24 b3 00 00 00 	movb   $0x71,0xb3(%rsp)
  401b1e:	71 
  401b1f:	c6 84 24 b4 00 00 00 	movb   $0x75,0xb4(%rsp)
  401b26:	75 
  401b27:	c6 84 24 b5 00 00 00 	movb   $0x69,0xb5(%rsp)
  401b2e:	69 
  401b2f:	c6 84 24 b6 00 00 00 	movb   $0x74,0xb6(%rsp)
  401b36:	74 
  401b37:	c6 84 24 b7 00 00 00 	movb   $0x65,0xb7(%rsp)
  401b3e:	65 
  401b3f:	c6 84 24 b8 00 00 00 	movb   $0x20,0xb8(%rsp)
  401b46:	20 
  401b47:	c6 84 24 b9 00 00 00 	movb   $0x64,0xb9(%rsp)
  401b4e:	64 
  401b4f:	c6 84 24 ba 00 00 00 	movb   $0x69,0xba(%rsp)
  401b56:	69 
  401b57:	c6 84 24 bb 00 00 00 	movb   $0x66,0xbb(%rsp)
  401b5e:	66 
  401b5f:	c6 84 24 bc 00 00 00 	movb   $0x66,0xbc(%rsp)
  401b66:	66 
  401b67:	c6 84 24 bd 00 00 00 	movb   $0x65,0xbd(%rsp)
  401b6e:	65 
  401b6f:	c6 84 24 be 00 00 00 	movb   $0x72,0xbe(%rsp)
  401b76:	72 
  401b77:	c6 84 24 bf 00 00 00 	movb   $0x65,0xbf(%rsp)
  401b7e:	65 
  401b7f:	c6 84 24 c0 00 00 00 	movb   $0x6e,0xc0(%rsp)
  401b86:	6e 
  401b87:	c6 84 24 c1 00 00 00 	movb   $0x74,0xc1(%rsp)
  401b8e:	74 
  401b8f:	c6 84 24 c2 00 00 00 	movb   $0x2e,0xc2(%rsp)
  401b96:	2e 
  401b97:	c6 84 24 c3 00 00 00 	movb   $0x2e,0xc3(%rsp)
  401b9e:	2e 
  401b9f:	c6 84 24 c4 00 00 00 	movb   $0x2e,0xc4(%rsp)
  401ba6:	2e 
  401ba7:	83 3d 72 2a 20 00 06 	cmpl   $0x6,0x202a72(%rip)        # 604620 <num_input_strings>
  401bae:	75 34                	jne    401be4 <explode_bomb+0x564>
  401bb0:	83 3d 65 2a 20 00 21 	cmpl   $0x21,0x202a65(%rip)        # 60461c <last>
  401bb7:	75 2b                	jne    401be4 <explode_bomb+0x564>
  401bb9:	48 89 e7             	mov    %rsp,%rdi
  401bbc:	e8 4f ef ff ff       	callq  400b10 <puts@plt>
  401bc1:	e8 81 fa ff ff       	callq  401647 <phase_defused>
  401bc6:	c7 05 4c 2a 20 00 00 	movl   $0x0,0x202a4c(%rip)        # 60461c <last>
  401bcd:	00 00 00 
  401bd0:	b8 00 00 00 00       	mov    $0x0,%eax
  401bd5:	e8 1c f6 ff ff       	callq  4011f6 <s3cret_ph4se>
  401bda:	bf 00 00 00 00       	mov    $0x0,%edi
  401bdf:	e8 5c f0 ff ff       	callq  400c40 <exit@plt>
  401be4:	bf 7d 31 40 00       	mov    $0x40317d,%edi
  401be9:	e8 22 ef ff ff       	callq  400b10 <puts@plt>
  401bee:	bf 86 31 40 00       	mov    $0x403186,%edi
  401bf3:	e8 18 ef ff ff       	callq  400b10 <puts@plt>
  401bf8:	bf 00 00 00 00       	mov    $0x0,%edi
  401bfd:	e8 81 f9 ff ff       	callq  401583 <send_msg>
  401c02:	bf a8 30 40 00       	mov    $0x4030a8,%edi
  401c07:	e8 04 ef ff ff       	callq  400b10 <puts@plt>
  401c0c:	bf 08 00 00 00       	mov    $0x8,%edi
  401c11:	e8 2a f0 ff ff       	callq  400c40 <exit@plt>

0000000000401c16 <read_six_numbers>:
  401c16:	48 83 ec 18          	sub    $0x18,%rsp
  401c1a:	48 89 f2             	mov    %rsi,%rdx
  401c1d:	48 8d 4e 04          	lea    0x4(%rsi),%rcx
  401c21:	48 8d 46 14          	lea    0x14(%rsi),%rax
  401c25:	48 89 44 24 08       	mov    %rax,0x8(%rsp)
  401c2a:	48 8d 46 10          	lea    0x10(%rsi),%rax
  401c2e:	48 89 04 24          	mov    %rax,(%rsp)
  401c32:	4c 8d 4e 0c          	lea    0xc(%rsi),%r9
  401c36:	4c 8d 46 08          	lea    0x8(%rsi),%r8
  401c3a:	be 9d 31 40 00       	mov    $0x40319d,%esi
  401c3f:	b8 00 00 00 00       	mov    $0x0,%eax
  401c44:	e8 a7 ef ff ff       	callq  400bf0 <__isoc99_sscanf@plt>
  401c49:	83 f8 05             	cmp    $0x5,%eax
  401c4c:	7f 05                	jg     401c53 <read_six_numbers+0x3d>
  401c4e:	e8 2d fa ff ff       	callq  401680 <explode_bomb>
  401c53:	48 83 c4 18          	add    $0x18,%rsp
  401c57:	c3                   	retq   

0000000000401c58 <read_line>:
  401c58:	48 83 ec 08          	sub    $0x8,%rsp
  401c5c:	b8 00 00 00 00       	mov    $0x0,%eax
  401c61:	e8 dc f8 ff ff       	callq  401542 <skip>
  401c66:	48 85 c0             	test   %rax,%rax
  401c69:	75 6e                	jne    401cd9 <read_line+0x81>
  401c6b:	48 8b 05 96 29 20 00 	mov    0x202996(%rip),%rax        # 604608 <stdin@@GLIBC_2.2.5>
  401c72:	48 39 05 af 29 20 00 	cmp    %rax,0x2029af(%rip)        # 604628 <infile>
  401c79:	75 14                	jne    401c8f <read_line+0x37>
  401c7b:	bf af 31 40 00       	mov    $0x4031af,%edi
  401c80:	e8 8b ee ff ff       	callq  400b10 <puts@plt>
  401c85:	bf 08 00 00 00       	mov    $0x8,%edi
  401c8a:	e8 b1 ef ff ff       	callq  400c40 <exit@plt>
  401c8f:	bf cd 31 40 00       	mov    $0x4031cd,%edi
  401c94:	e8 37 ee ff ff       	callq  400ad0 <getenv@plt>
  401c99:	48 85 c0             	test   %rax,%rax
  401c9c:	74 0a                	je     401ca8 <read_line+0x50>
  401c9e:	bf 00 00 00 00       	mov    $0x0,%edi
  401ca3:	e8 98 ef ff ff       	callq  400c40 <exit@plt>
  401ca8:	48 8b 05 59 29 20 00 	mov    0x202959(%rip),%rax        # 604608 <stdin@@GLIBC_2.2.5>
  401caf:	48 89 05 72 29 20 00 	mov    %rax,0x202972(%rip)        # 604628 <infile>
  401cb6:	b8 00 00 00 00       	mov    $0x0,%eax
  401cbb:	e8 82 f8 ff ff       	callq  401542 <skip>
  401cc0:	48 85 c0             	test   %rax,%rax
  401cc3:	75 14                	jne    401cd9 <read_line+0x81>
  401cc5:	bf af 31 40 00       	mov    $0x4031af,%edi
  401cca:	e8 41 ee ff ff       	callq  400b10 <puts@plt>
  401ccf:	bf 00 00 00 00       	mov    $0x0,%edi
  401cd4:	e8 67 ef ff ff       	callq  400c40 <exit@plt>
  401cd9:	8b 15 41 29 20 00    	mov    0x202941(%rip),%edx        # 604620 <num_input_strings>
  401cdf:	48 63 c2             	movslq %edx,%rax
  401ce2:	48 8d 34 80          	lea    (%rax,%rax,4),%rsi
  401ce6:	48 c1 e6 04          	shl    $0x4,%rsi
  401cea:	48 81 c6 40 46 60 00 	add    $0x604640,%rsi
  401cf1:	48 89 f7             	mov    %rsi,%rdi
  401cf4:	b8 00 00 00 00       	mov    $0x0,%eax
  401cf9:	48 c7 c1 ff ff ff ff 	mov    $0xffffffffffffffff,%rcx
  401d00:	f2 ae                	repnz scas %es:(%rdi),%al
  401d02:	48 f7 d1             	not    %rcx
  401d05:	48 83 e9 01          	sub    $0x1,%rcx
  401d09:	83 f9 4e             	cmp    $0x4e,%ecx
  401d0c:	7e 46                	jle    401d54 <read_line+0xfc>
  401d0e:	bf d8 31 40 00       	mov    $0x4031d8,%edi
  401d13:	e8 f8 ed ff ff       	callq  400b10 <puts@plt>
  401d18:	8b 05 02 29 20 00    	mov    0x202902(%rip),%eax        # 604620 <num_input_strings>
  401d1e:	8d 50 01             	lea    0x1(%rax),%edx
  401d21:	89 15 f9 28 20 00    	mov    %edx,0x2028f9(%rip)        # 604620 <num_input_strings>
  401d27:	48 98                	cltq   
  401d29:	48 6b c0 50          	imul   $0x50,%rax,%rax
  401d2d:	48 bf 2a 2a 2a 74 72 	movabs $0x636e7572742a2a2a,%rdi
  401d34:	75 6e 63 
  401d37:	48 89 b8 40 46 60 00 	mov    %rdi,0x604640(%rax)
  401d3e:	48 bf 61 74 65 64 2a 	movabs $0x2a2a2a64657461,%rdi
  401d45:	2a 2a 00 
  401d48:	48 89 b8 48 46 60 00 	mov    %rdi,0x604648(%rax)
  401d4f:	e8 2c f9 ff ff       	callq  401680 <explode_bomb>
  401d54:	83 e9 01             	sub    $0x1,%ecx
  401d57:	48 63 c9             	movslq %ecx,%rcx
  401d5a:	48 63 c2             	movslq %edx,%rax
  401d5d:	48 8d 04 80          	lea    (%rax,%rax,4),%rax
  401d61:	48 c1 e0 04          	shl    $0x4,%rax
  401d65:	c6 84 01 40 46 60 00 	movb   $0x0,0x604640(%rcx,%rax,1)
  401d6c:	00 
  401d6d:	83 c2 01             	add    $0x1,%edx
  401d70:	89 15 aa 28 20 00    	mov    %edx,0x2028aa(%rip)        # 604620 <num_input_strings>
  401d76:	48 89 f0             	mov    %rsi,%rax
  401d79:	48 83 c4 08          	add    $0x8,%rsp
  401d7d:	c3                   	retq   
  401d7e:	66 90                	xchg   %ax,%ax

0000000000401d80 <sigalrm_handler>:
  401d80:	48 83 ec 08          	sub    $0x8,%rsp
  401d84:	ba 00 00 00 00       	mov    $0x0,%edx
  401d89:	be 38 33 40 00       	mov    $0x403338,%esi
  401d8e:	48 8b 3d 7b 28 20 00 	mov    0x20287b(%rip),%rdi        # 604610 <stderr@@GLIBC_2.2.5>
  401d95:	b8 00 00 00 00       	mov    $0x0,%eax
  401d9a:	e8 11 ee ff ff       	callq  400bb0 <fprintf@plt>
  401d9f:	bf 01 00 00 00       	mov    $0x1,%edi
  401da4:	e8 97 ee ff ff       	callq  400c40 <exit@plt>

0000000000401da9 <rio_readlineb>:
  401da9:	41 57                	push   %r15
  401dab:	41 56                	push   %r14
  401dad:	41 55                	push   %r13
  401daf:	41 54                	push   %r12
  401db1:	55                   	push   %rbp
  401db2:	53                   	push   %rbx
  401db3:	48 83 ec 38          	sub    $0x38,%rsp
  401db7:	49 89 f6             	mov    %rsi,%r14
  401dba:	48 89 54 24 18       	mov    %rdx,0x18(%rsp)
  401dbf:	48 83 fa 01          	cmp    $0x1,%rdx
  401dc3:	0f 86 c2 00 00 00    	jbe    401e8b <rio_readlineb+0xe2>
  401dc9:	48 89 fb             	mov    %rdi,%rbx
  401dcc:	41 bd 01 00 00 00    	mov    $0x1,%r13d
  401dd2:	4c 8d 67 10          	lea    0x10(%rdi),%r12
  401dd6:	eb 2e                	jmp    401e06 <rio_readlineb+0x5d>
  401dd8:	ba 00 20 00 00       	mov    $0x2000,%edx
  401ddd:	4c 89 e6             	mov    %r12,%rsi
  401de0:	8b 3b                	mov    (%rbx),%edi
  401de2:	e8 79 ed ff ff       	callq  400b60 <read@plt>
  401de7:	89 43 04             	mov    %eax,0x4(%rbx)
  401dea:	85 c0                	test   %eax,%eax
  401dec:	79 0f                	jns    401dfd <rio_readlineb+0x54>
  401dee:	e8 fd ec ff ff       	callq  400af0 <__errno_location@plt>
  401df3:	83 38 04             	cmpl   $0x4,(%rax)
  401df6:	74 0e                	je     401e06 <rio_readlineb+0x5d>
  401df8:	e9 9d 00 00 00       	jmpq   401e9a <rio_readlineb+0xf1>
  401dfd:	85 c0                	test   %eax,%eax
  401dff:	90                   	nop
  401e00:	74 6c                	je     401e6e <rio_readlineb+0xc5>
  401e02:	4c 89 63 08          	mov    %r12,0x8(%rbx)
  401e06:	8b 6b 04             	mov    0x4(%rbx),%ebp
  401e09:	85 ed                	test   %ebp,%ebp
  401e0b:	7e cb                	jle    401dd8 <rio_readlineb+0x2f>
  401e0d:	85 ed                	test   %ebp,%ebp
  401e0f:	41 0f 95 c7          	setne  %r15b
  401e13:	41 0f b6 c7          	movzbl %r15b,%eax
  401e17:	89 44 24 0c          	mov    %eax,0xc(%rsp)
  401e1b:	45 0f b6 ff          	movzbl %r15b,%r15d
  401e1f:	48 8b 4b 08          	mov    0x8(%rbx),%rcx
  401e23:	4c 89 fa             	mov    %r15,%rdx
  401e26:	48 89 4c 24 10       	mov    %rcx,0x10(%rsp)
  401e2b:	48 89 ce             	mov    %rcx,%rsi
  401e2e:	48 8d 7c 24 2f       	lea    0x2f(%rsp),%rdi
  401e33:	e8 98 ed ff ff       	callq  400bd0 <memcpy@plt>
  401e38:	4c 03 7c 24 10       	add    0x10(%rsp),%r15
  401e3d:	4c 89 7b 08          	mov    %r15,0x8(%rbx)
  401e41:	8b 44 24 0c          	mov    0xc(%rsp),%eax
  401e45:	29 c5                	sub    %eax,%ebp
  401e47:	89 6b 04             	mov    %ebp,0x4(%rbx)
  401e4a:	83 f8 01             	cmp    $0x1,%eax
  401e4d:	75 13                	jne    401e62 <rio_readlineb+0xb9>
  401e4f:	49 83 c6 01          	add    $0x1,%r14
  401e53:	0f b6 44 24 2f       	movzbl 0x2f(%rsp),%eax
  401e58:	41 88 46 ff          	mov    %al,-0x1(%r14)
  401e5c:	3c 0a                	cmp    $0xa,%al
  401e5e:	75 18                	jne    401e78 <rio_readlineb+0xcf>
  401e60:	eb 2f                	jmp    401e91 <rio_readlineb+0xe8>
  401e62:	83 7c 24 0c 00       	cmpl   $0x0,0xc(%rsp)
  401e67:	75 3a                	jne    401ea3 <rio_readlineb+0xfa>
  401e69:	44 89 e8             	mov    %r13d,%eax
  401e6c:	eb 03                	jmp    401e71 <rio_readlineb+0xc8>
  401e6e:	44 89 e8             	mov    %r13d,%eax
  401e71:	83 f8 01             	cmp    $0x1,%eax
  401e74:	75 1b                	jne    401e91 <rio_readlineb+0xe8>
  401e76:	eb 34                	jmp    401eac <rio_readlineb+0x103>
  401e78:	41 83 c5 01          	add    $0x1,%r13d
  401e7c:	49 63 c5             	movslq %r13d,%rax
  401e7f:	48 3b 44 24 18       	cmp    0x18(%rsp),%rax
  401e84:	73 0b                	jae    401e91 <rio_readlineb+0xe8>
  401e86:	e9 7b ff ff ff       	jmpq   401e06 <rio_readlineb+0x5d>
  401e8b:	41 bd 01 00 00 00    	mov    $0x1,%r13d
  401e91:	41 c6 06 00          	movb   $0x0,(%r14)
  401e95:	49 63 c5             	movslq %r13d,%rax
  401e98:	eb 17                	jmp    401eb1 <rio_readlineb+0x108>
  401e9a:	48 c7 c0 ff ff ff ff 	mov    $0xffffffffffffffff,%rax
  401ea1:	eb 0e                	jmp    401eb1 <rio_readlineb+0x108>
  401ea3:	48 c7 c0 ff ff ff ff 	mov    $0xffffffffffffffff,%rax
  401eaa:	eb 05                	jmp    401eb1 <rio_readlineb+0x108>
  401eac:	b8 00 00 00 00       	mov    $0x0,%eax
  401eb1:	48 83 c4 38          	add    $0x38,%rsp
  401eb5:	5b                   	pop    %rbx
  401eb6:	5d                   	pop    %rbp
  401eb7:	41 5c                	pop    %r12
  401eb9:	41 5d                	pop    %r13
  401ebb:	41 5e                	pop    %r14
  401ebd:	41 5f                	pop    %r15
  401ebf:	c3                   	retq   

0000000000401ec0 <submitr>:
  401ec0:	41 57                	push   %r15
  401ec2:	41 56                	push   %r14
  401ec4:	41 55                	push   %r13
  401ec6:	41 54                	push   %r12
  401ec8:	55                   	push   %rbp
  401ec9:	53                   	push   %rbx
  401eca:	48 81 ec 68 a0 00 00 	sub    $0xa068,%rsp
  401ed1:	48 89 fd             	mov    %rdi,%rbp
  401ed4:	41 89 f5             	mov    %esi,%r13d
  401ed7:	48 89 54 24 08       	mov    %rdx,0x8(%rsp)
  401edc:	48 89 4c 24 10       	mov    %rcx,0x10(%rsp)
  401ee1:	4c 89 44 24 18       	mov    %r8,0x18(%rsp)
  401ee6:	4d 89 cf             	mov    %r9,%r15
  401ee9:	48 8b 9c 24 a0 a0 00 	mov    0xa0a0(%rsp),%rbx
  401ef0:	00 
  401ef1:	4c 8b b4 24 a8 a0 00 	mov    0xa0a8(%rsp),%r14
  401ef8:	00 
  401ef9:	c7 84 24 3c 20 00 00 	movl   $0x0,0x203c(%rsp)
  401f00:	00 00 00 00 
  401f04:	ba 00 00 00 00       	mov    $0x0,%edx
  401f09:	be 01 00 00 00       	mov    $0x1,%esi
  401f0e:	bf 02 00 00 00       	mov    $0x2,%edi
  401f13:	e8 68 ed ff ff       	callq  400c80 <socket@plt>
  401f18:	41 89 c4             	mov    %eax,%r12d
  401f1b:	85 c0                	test   %eax,%eax
  401f1d:	79 50                	jns    401f6f <submitr+0xaf>
  401f1f:	48 b8 45 72 72 6f 72 	movabs $0x43203a726f727245,%rax
  401f26:	3a 20 43 
  401f29:	49 89 06             	mov    %rax,(%r14)
  401f2c:	48 b8 6c 69 65 6e 74 	movabs $0x6e7520746e65696c,%rax
  401f33:	20 75 6e 
  401f36:	49 89 46 08          	mov    %rax,0x8(%r14)
  401f3a:	48 b8 61 62 6c 65 20 	movabs $0x206f7420656c6261,%rax
  401f41:	74 6f 20 
  401f44:	49 89 46 10          	mov    %rax,0x10(%r14)
  401f48:	48 b8 63 72 65 61 74 	movabs $0x7320657461657263,%rax
  401f4f:	65 20 73 
  401f52:	49 89 46 18          	mov    %rax,0x18(%r14)
  401f56:	41 c7 46 20 6f 63 6b 	movl   $0x656b636f,0x20(%r14)
  401f5d:	65 
  401f5e:	66 41 c7 46 24 74 00 	movw   $0x74,0x24(%r14)
  401f65:	b8 ff ff ff ff       	mov    $0xffffffff,%eax
  401f6a:	e9 f9 06 00 00       	jmpq   402668 <submitr+0x7a8>
  401f6f:	48 89 ef             	mov    %rbp,%rdi
  401f72:	e8 29 ec ff ff       	callq  400ba0 <gethostbyname@plt>
  401f77:	48 85 c0             	test   %rax,%rax
  401f7a:	75 6b                	jne    401fe7 <submitr+0x127>
  401f7c:	48 b8 45 72 72 6f 72 	movabs $0x44203a726f727245,%rax
  401f83:	3a 20 44 
  401f86:	49 89 06             	mov    %rax,(%r14)
  401f89:	48 b8 4e 53 20 69 73 	movabs $0x6e7520736920534e,%rax
  401f90:	20 75 6e 
  401f93:	49 89 46 08          	mov    %rax,0x8(%r14)
  401f97:	48 b8 61 62 6c 65 20 	movabs $0x206f7420656c6261,%rax
  401f9e:	74 6f 20 
  401fa1:	49 89 46 10          	mov    %rax,0x10(%r14)
  401fa5:	48 b8 72 65 73 6f 6c 	movabs $0x2065766c6f736572,%rax
  401fac:	76 65 20 
  401faf:	49 89 46 18          	mov    %rax,0x18(%r14)
  401fb3:	48 b8 73 65 72 76 65 	movabs $0x6120726576726573,%rax
  401fba:	72 20 61 
  401fbd:	49 89 46 20          	mov    %rax,0x20(%r14)
  401fc1:	41 c7 46 28 64 64 72 	movl   $0x65726464,0x28(%r14)
  401fc8:	65 
  401fc9:	66 41 c7 46 2c 73 73 	movw   $0x7373,0x2c(%r14)
  401fd0:	41 c6 46 2e 00       	movb   $0x0,0x2e(%r14)
  401fd5:	44 89 e7             	mov    %r12d,%edi
  401fd8:	e8 73 eb ff ff       	callq  400b50 <close@plt>
  401fdd:	b8 ff ff ff ff       	mov    $0xffffffff,%eax
  401fe2:	e9 81 06 00 00       	jmpq   402668 <submitr+0x7a8>
  401fe7:	48 c7 84 24 50 a0 00 	movq   $0x0,0xa050(%rsp)
  401fee:	00 00 00 00 00 
  401ff3:	48 c7 84 24 58 a0 00 	movq   $0x0,0xa058(%rsp)
  401ffa:	00 00 00 00 00 
  401fff:	66 c7 84 24 50 a0 00 	movw   $0x2,0xa050(%rsp)
  402006:	00 02 00 
  402009:	48 63 50 14          	movslq 0x14(%rax),%rdx
  40200d:	48 8d b4 24 54 a0 00 	lea    0xa054(%rsp),%rsi
  402014:	00 
  402015:	48 8b 40 18          	mov    0x18(%rax),%rax
  402019:	48 8b 38             	mov    (%rax),%rdi
  40201c:	e8 df eb ff ff       	callq  400c00 <bcopy@plt>
  402021:	66 41 c1 cd 08       	ror    $0x8,%r13w
  402026:	66 44 89 ac 24 52 a0 	mov    %r13w,0xa052(%rsp)
  40202d:	00 00 
  40202f:	ba 10 00 00 00       	mov    $0x10,%edx
  402034:	48 8d b4 24 50 a0 00 	lea    0xa050(%rsp),%rsi
  40203b:	00 
  40203c:	44 89 e7             	mov    %r12d,%edi
  40203f:	e8 0c ec ff ff       	callq  400c50 <connect@plt>
  402044:	85 c0                	test   %eax,%eax
  402046:	79 5d                	jns    4020a5 <submitr+0x1e5>
  402048:	48 b8 45 72 72 6f 72 	movabs $0x55203a726f727245,%rax
  40204f:	3a 20 55 
  402052:	49 89 06             	mov    %rax,(%r14)
  402055:	48 b8 6e 61 62 6c 65 	movabs $0x6f7420656c62616e,%rax
  40205c:	20 74 6f 
  40205f:	49 89 46 08          	mov    %rax,0x8(%r14)
  402063:	48 b8 20 63 6f 6e 6e 	movabs $0x7463656e6e6f6320,%rax
  40206a:	65 63 74 
  40206d:	49 89 46 10          	mov    %rax,0x10(%r14)
  402071:	48 b8 20 74 6f 20 74 	movabs $0x20656874206f7420,%rax
  402078:	68 65 20 
  40207b:	49 89 46 18          	mov    %rax,0x18(%r14)
  40207f:	41 c7 46 20 73 65 72 	movl   $0x76726573,0x20(%r14)
  402086:	76 
  402087:	66 41 c7 46 24 65 72 	movw   $0x7265,0x24(%r14)
  40208e:	41 c6 46 26 00       	movb   $0x0,0x26(%r14)
  402093:	44 89 e7             	mov    %r12d,%edi
  402096:	e8 b5 ea ff ff       	callq  400b50 <close@plt>
  40209b:	b8 ff ff ff ff       	mov    $0xffffffff,%eax
  4020a0:	e9 c3 05 00 00       	jmpq   402668 <submitr+0x7a8>
  4020a5:	48 c7 c2 ff ff ff ff 	mov    $0xffffffffffffffff,%rdx
  4020ac:	48 89 df             	mov    %rbx,%rdi
  4020af:	b8 00 00 00 00       	mov    $0x0,%eax
  4020b4:	48 89 d1             	mov    %rdx,%rcx
  4020b7:	f2 ae                	repnz scas %es:(%rdi),%al
  4020b9:	48 f7 d1             	not    %rcx
  4020bc:	48 89 ce             	mov    %rcx,%rsi
  4020bf:	48 8b 7c 24 08       	mov    0x8(%rsp),%rdi
  4020c4:	48 89 d1             	mov    %rdx,%rcx
  4020c7:	f2 ae                	repnz scas %es:(%rdi),%al
  4020c9:	49 89 c8             	mov    %rcx,%r8
  4020cc:	48 8b 7c 24 10       	mov    0x10(%rsp),%rdi
  4020d1:	48 89 d1             	mov    %rdx,%rcx
  4020d4:	f2 ae                	repnz scas %es:(%rdi),%al
  4020d6:	48 f7 d1             	not    %rcx
  4020d9:	49 89 c9             	mov    %rcx,%r9
  4020dc:	4c 89 ff             	mov    %r15,%rdi
  4020df:	48 89 d1             	mov    %rdx,%rcx
  4020e2:	f2 ae                	repnz scas %es:(%rdi),%al
  4020e4:	4d 29 c1             	sub    %r8,%r9
  4020e7:	49 29 c9             	sub    %rcx,%r9
  4020ea:	48 8d 44 76 fd       	lea    -0x3(%rsi,%rsi,2),%rax
  4020ef:	49 8d 44 01 7b       	lea    0x7b(%r9,%rax,1),%rax
  4020f4:	48 3d 00 20 00 00    	cmp    $0x2000,%rax
  4020fa:	76 73                	jbe    40216f <submitr+0x2af>
  4020fc:	48 b8 45 72 72 6f 72 	movabs $0x52203a726f727245,%rax
  402103:	3a 20 52 
  402106:	49 89 06             	mov    %rax,(%r14)
  402109:	48 b8 65 73 75 6c 74 	movabs $0x747320746c757365,%rax
  402110:	20 73 74 
  402113:	49 89 46 08          	mov    %rax,0x8(%r14)
  402117:	48 b8 72 69 6e 67 20 	movabs $0x6f6f7420676e6972,%rax
  40211e:	74 6f 6f 
  402121:	49 89 46 10          	mov    %rax,0x10(%r14)
  402125:	48 b8 20 6c 61 72 67 	movabs $0x202e656772616c20,%rax
  40212c:	65 2e 20 
  40212f:	49 89 46 18          	mov    %rax,0x18(%r14)
  402133:	48 b8 49 6e 63 72 65 	movabs $0x6573616572636e49,%rax
  40213a:	61 73 65 
  40213d:	49 89 46 20          	mov    %rax,0x20(%r14)
  402141:	48 b8 20 53 55 42 4d 	movabs $0x5254494d42555320,%rax
  402148:	49 54 52 
  40214b:	49 89 46 28          	mov    %rax,0x28(%r14)
  40214f:	48 b8 5f 4d 41 58 42 	movabs $0x46554258414d5f,%rax
  402156:	55 46 00 
  402159:	49 89 46 30          	mov    %rax,0x30(%r14)
  40215d:	44 89 e7             	mov    %r12d,%edi
  402160:	e8 eb e9 ff ff       	callq  400b50 <close@plt>
  402165:	b8 ff ff ff ff       	mov    $0xffffffff,%eax
  40216a:	e9 f9 04 00 00       	jmpq   402668 <submitr+0x7a8>
  40216f:	48 8d 94 24 40 40 00 	lea    0x4040(%rsp),%rdx
  402176:	00 
  402177:	b9 00 04 00 00       	mov    $0x400,%ecx
  40217c:	b8 00 00 00 00       	mov    $0x0,%eax
  402181:	48 89 d7             	mov    %rdx,%rdi
  402184:	f3 48 ab             	rep stos %rax,%es:(%rdi)
  402187:	48 89 df             	mov    %rbx,%rdi
  40218a:	48 c7 c1 ff ff ff ff 	mov    $0xffffffffffffffff,%rcx
  402191:	f2 ae                	repnz scas %es:(%rdi),%al
  402193:	48 f7 d1             	not    %rcx
  402196:	48 83 e9 01          	sub    $0x1,%rcx
  40219a:	85 c9                	test   %ecx,%ecx
  40219c:	0f 84 d3 03 00 00    	je     402575 <submitr+0x6b5>
  4021a2:	8d 41 ff             	lea    -0x1(%rcx),%eax
  4021a5:	4c 8d 6c 03 01       	lea    0x1(%rbx,%rax,1),%r13
  4021aa:	48 89 d5             	mov    %rdx,%rbp
  4021ad:	0f b6 13             	movzbl (%rbx),%edx
  4021b0:	80 fa 2a             	cmp    $0x2a,%dl
  4021b3:	74 1f                	je     4021d4 <submitr+0x314>
  4021b5:	8d 42 d3             	lea    -0x2d(%rdx),%eax
  4021b8:	3c 01                	cmp    $0x1,%al
  4021ba:	76 18                	jbe    4021d4 <submitr+0x314>
  4021bc:	80 fa 5f             	cmp    $0x5f,%dl
  4021bf:	74 13                	je     4021d4 <submitr+0x314>
  4021c1:	8d 42 d0             	lea    -0x30(%rdx),%eax
  4021c4:	3c 09                	cmp    $0x9,%al
  4021c6:	76 0c                	jbe    4021d4 <submitr+0x314>
  4021c8:	89 d0                	mov    %edx,%eax
  4021ca:	83 e0 df             	and    $0xffffffdf,%eax
  4021cd:	83 e8 41             	sub    $0x41,%eax
  4021d0:	3c 19                	cmp    $0x19,%al
  4021d2:	77 09                	ja     4021dd <submitr+0x31d>
  4021d4:	48 8d 45 01          	lea    0x1(%rbp),%rax
  4021d8:	88 55 00             	mov    %dl,0x0(%rbp)
  4021db:	eb 52                	jmp    40222f <submitr+0x36f>
  4021dd:	80 fa 20             	cmp    $0x20,%dl
  4021e0:	75 0a                	jne    4021ec <submitr+0x32c>
  4021e2:	48 8d 45 01          	lea    0x1(%rbp),%rax
  4021e6:	c6 45 00 2b          	movb   $0x2b,0x0(%rbp)
  4021ea:	eb 43                	jmp    40222f <submitr+0x36f>
  4021ec:	8d 42 e0             	lea    -0x20(%rdx),%eax
  4021ef:	3c 5f                	cmp    $0x5f,%al
  4021f1:	76 09                	jbe    4021fc <submitr+0x33c>
  4021f3:	80 fa 09             	cmp    $0x9,%dl
  4021f6:	0f 85 e4 03 00 00    	jne    4025e0 <submitr+0x720>
  4021fc:	0f b6 d2             	movzbl %dl,%edx
  4021ff:	be 10 34 40 00       	mov    $0x403410,%esi
  402204:	48 8d 7c 24 20       	lea    0x20(%rsp),%rdi
  402209:	b8 00 00 00 00       	mov    $0x0,%eax
  40220e:	e8 1d ea ff ff       	callq  400c30 <sprintf@plt>
  402213:	0f b6 44 24 20       	movzbl 0x20(%rsp),%eax
  402218:	88 45 00             	mov    %al,0x0(%rbp)
  40221b:	0f b6 44 24 21       	movzbl 0x21(%rsp),%eax
  402220:	88 45 01             	mov    %al,0x1(%rbp)
  402223:	48 8d 45 03          	lea    0x3(%rbp),%rax
  402227:	0f b6 54 24 22       	movzbl 0x22(%rsp),%edx
  40222c:	88 55 02             	mov    %dl,0x2(%rbp)
  40222f:	48 83 c3 01          	add    $0x1,%rbx
  402233:	4c 39 eb             	cmp    %r13,%rbx
  402236:	0f 84 39 03 00 00    	je     402575 <submitr+0x6b5>
  40223c:	48 89 c5             	mov    %rax,%rbp
  40223f:	e9 69 ff ff ff       	jmpq   4021ad <submitr+0x2ed>
  402244:	48 89 da             	mov    %rbx,%rdx
  402247:	48 89 ee             	mov    %rbp,%rsi
  40224a:	44 89 e7             	mov    %r12d,%edi
  40224d:	e8 ce e8 ff ff       	callq  400b20 <write@plt>
  402252:	48 85 c0             	test   %rax,%rax
  402255:	7f 10                	jg     402267 <submitr+0x3a7>
  402257:	e8 94 e8 ff ff       	callq  400af0 <__errno_location@plt>
  40225c:	83 38 04             	cmpl   $0x4,(%rax)
  40225f:	90                   	nop
  402260:	75 12                	jne    402274 <submitr+0x3b4>
  402262:	b8 00 00 00 00       	mov    $0x0,%eax
  402267:	48 01 c5             	add    %rax,%rbp
  40226a:	48 29 c3             	sub    %rax,%rbx
  40226d:	75 d5                	jne    402244 <submitr+0x384>
  40226f:	4d 85 ed             	test   %r13,%r13
  402272:	79 5f                	jns    4022d3 <submitr+0x413>
  402274:	48 b8 45 72 72 6f 72 	movabs $0x43203a726f727245,%rax
  40227b:	3a 20 43 
  40227e:	49 89 06             	mov    %rax,(%r14)
  402281:	48 b8 6c 69 65 6e 74 	movabs $0x6e7520746e65696c,%rax
  402288:	20 75 6e 
  40228b:	49 89 46 08          	mov    %rax,0x8(%r14)
  40228f:	48 b8 61 62 6c 65 20 	movabs $0x206f7420656c6261,%rax
  402296:	74 6f 20 
  402299:	49 89 46 10          	mov    %rax,0x10(%r14)
  40229d:	48 b8 77 72 69 74 65 	movabs $0x6f74206574697277,%rax
  4022a4:	20 74 6f 
  4022a7:	49 89 46 18          	mov    %rax,0x18(%r14)
  4022ab:	48 b8 20 74 68 65 20 	movabs $0x7265732065687420,%rax
  4022b2:	73 65 72 
  4022b5:	49 89 46 20          	mov    %rax,0x20(%r14)
  4022b9:	41 c7 46 28 76 65 72 	movl   $0x726576,0x28(%r14)
  4022c0:	00 
  4022c1:	44 89 e7             	mov    %r12d,%edi
  4022c4:	e8 87 e8 ff ff       	callq  400b50 <close@plt>
  4022c9:	b8 ff ff ff ff       	mov    $0xffffffff,%eax
  4022ce:	e9 95 03 00 00       	jmpq   402668 <submitr+0x7a8>
  4022d3:	44 89 a4 24 40 80 00 	mov    %r12d,0x8040(%rsp)
  4022da:	00 
  4022db:	c7 84 24 44 80 00 00 	movl   $0x0,0x8044(%rsp)
  4022e2:	00 00 00 00 
  4022e6:	48 8d 84 24 50 80 00 	lea    0x8050(%rsp),%rax
  4022ed:	00 
  4022ee:	48 89 84 24 48 80 00 	mov    %rax,0x8048(%rsp)
  4022f5:	00 
  4022f6:	ba 00 20 00 00       	mov    $0x2000,%edx
  4022fb:	48 8d b4 24 40 60 00 	lea    0x6040(%rsp),%rsi
  402302:	00 
  402303:	48 8d bc 24 40 80 00 	lea    0x8040(%rsp),%rdi
  40230a:	00 
  40230b:	e8 99 fa ff ff       	callq  401da9 <rio_readlineb>
  402310:	48 85 c0             	test   %rax,%rax
  402313:	7f 74                	jg     402389 <submitr+0x4c9>
  402315:	48 b8 45 72 72 6f 72 	movabs $0x43203a726f727245,%rax
  40231c:	3a 20 43 
  40231f:	49 89 06             	mov    %rax,(%r14)
  402322:	48 b8 6c 69 65 6e 74 	movabs $0x6e7520746e65696c,%rax
  402329:	20 75 6e 
  40232c:	49 89 46 08          	mov    %rax,0x8(%r14)
  402330:	48 b8 61 62 6c 65 20 	movabs $0x206f7420656c6261,%rax
  402337:	74 6f 20 
  40233a:	49 89 46 10          	mov    %rax,0x10(%r14)
  40233e:	48 b8 72 65 61 64 20 	movabs $0x7269662064616572,%rax
  402345:	66 69 72 
  402348:	49 89 46 18          	mov    %rax,0x18(%r14)
  40234c:	48 b8 73 74 20 68 65 	movabs $0x6564616568207473,%rax
  402353:	61 64 65 
  402356:	49 89 46 20          	mov    %rax,0x20(%r14)
  40235a:	48 b8 72 20 66 72 6f 	movabs $0x73206d6f72662072,%rax
  402361:	6d 20 73 
  402364:	49 89 46 28          	mov    %rax,0x28(%r14)
  402368:	41 c7 46 30 65 72 76 	movl   $0x65767265,0x30(%r14)
  40236f:	65 
  402370:	66 41 c7 46 34 72 00 	movw   $0x72,0x34(%r14)
  402377:	44 89 e7             	mov    %r12d,%edi
  40237a:	e8 d1 e7 ff ff       	callq  400b50 <close@plt>
  40237f:	b8 ff ff ff ff       	mov    $0xffffffff,%eax
  402384:	e9 df 02 00 00       	jmpq   402668 <submitr+0x7a8>
  402389:	4c 8d 44 24 30       	lea    0x30(%rsp),%r8
  40238e:	48 8d 8c 24 3c 20 00 	lea    0x203c(%rsp),%rcx
  402395:	00 
  402396:	48 8d 94 24 40 20 00 	lea    0x2040(%rsp),%rdx
  40239d:	00 
  40239e:	be 17 34 40 00       	mov    $0x403417,%esi
  4023a3:	48 8d bc 24 40 60 00 	lea    0x6040(%rsp),%rdi
  4023aa:	00 
  4023ab:	b8 00 00 00 00       	mov    $0x0,%eax
  4023b0:	e8 3b e8 ff ff       	callq  400bf0 <__isoc99_sscanf@plt>
  4023b5:	8b 94 24 3c 20 00 00 	mov    0x203c(%rsp),%edx
  4023bc:	81 fa c8 00 00 00    	cmp    $0xc8,%edx
  4023c2:	0f 84 b2 00 00 00    	je     40247a <submitr+0x5ba>
  4023c8:	48 8d 4c 24 30       	lea    0x30(%rsp),%rcx
  4023cd:	be 60 33 40 00       	mov    $0x403360,%esi
  4023d2:	4c 89 f7             	mov    %r14,%rdi
  4023d5:	b8 00 00 00 00       	mov    $0x0,%eax
  4023da:	e8 51 e8 ff ff       	callq  400c30 <sprintf@plt>
  4023df:	44 89 e7             	mov    %r12d,%edi
  4023e2:	e8 69 e7 ff ff       	callq  400b50 <close@plt>
  4023e7:	b8 ff ff ff ff       	mov    $0xffffffff,%eax
  4023ec:	e9 77 02 00 00       	jmpq   402668 <submitr+0x7a8>
  4023f1:	ba 00 20 00 00       	mov    $0x2000,%edx
  4023f6:	48 8d b4 24 40 60 00 	lea    0x6040(%rsp),%rsi
  4023fd:	00 
  4023fe:	48 8d bc 24 40 80 00 	lea    0x8040(%rsp),%rdi
  402405:	00 
  402406:	e8 9e f9 ff ff       	callq  401da9 <rio_readlineb>
  40240b:	48 85 c0             	test   %rax,%rax
  40240e:	7f 6a                	jg     40247a <submitr+0x5ba>
  402410:	48 b8 45 72 72 6f 72 	movabs $0x43203a726f727245,%rax
  402417:	3a 20 43 
  40241a:	49 89 06             	mov    %rax,(%r14)
  40241d:	48 b8 6c 69 65 6e 74 	movabs $0x6e7520746e65696c,%rax
  402424:	20 75 6e 
  402427:	49 89 46 08          	mov    %rax,0x8(%r14)
  40242b:	48 b8 61 62 6c 65 20 	movabs $0x206f7420656c6261,%rax
  402432:	74 6f 20 
  402435:	49 89 46 10          	mov    %rax,0x10(%r14)
  402439:	48 b8 72 65 61 64 20 	movabs $0x6165682064616572,%rax
  402440:	68 65 61 
  402443:	49 89 46 18          	mov    %rax,0x18(%r14)
  402447:	48 b8 64 65 72 73 20 	movabs $0x6f72662073726564,%rax
  40244e:	66 72 6f 
  402451:	49 89 46 20          	mov    %rax,0x20(%r14)
  402455:	48 b8 6d 20 73 65 72 	movabs $0x726576726573206d,%rax
  40245c:	76 65 72 
  40245f:	49 89 46 28          	mov    %rax,0x28(%r14)
  402463:	41 c6 46 30 00       	movb   $0x0,0x30(%r14)
  402468:	44 89 e7             	mov    %r12d,%edi
  40246b:	e8 e0 e6 ff ff       	callq  400b50 <close@plt>
  402470:	b8 ff ff ff ff       	mov    $0xffffffff,%eax
  402475:	e9 ee 01 00 00       	jmpq   402668 <submitr+0x7a8>
  40247a:	80 bc 24 40 60 00 00 	cmpb   $0xd,0x6040(%rsp)
  402481:	0d 
  402482:	0f 85 69 ff ff ff    	jne    4023f1 <submitr+0x531>
  402488:	80 bc 24 41 60 00 00 	cmpb   $0xa,0x6041(%rsp)
  40248f:	0a 
  402490:	0f 85 5b ff ff ff    	jne    4023f1 <submitr+0x531>
  402496:	80 bc 24 42 60 00 00 	cmpb   $0x0,0x6042(%rsp)
  40249d:	00 
  40249e:	0f 85 4d ff ff ff    	jne    4023f1 <submitr+0x531>
  4024a4:	ba 00 20 00 00       	mov    $0x2000,%edx
  4024a9:	48 8d b4 24 40 60 00 	lea    0x6040(%rsp),%rsi
  4024b0:	00 
  4024b1:	48 8d bc 24 40 80 00 	lea    0x8040(%rsp),%rdi
  4024b8:	00 
  4024b9:	e8 eb f8 ff ff       	callq  401da9 <rio_readlineb>
  4024be:	48 85 c0             	test   %rax,%rax
  4024c1:	7f 73                	jg     402536 <submitr+0x676>
  4024c3:	48 b8 45 72 72 6f 72 	movabs $0x43203a726f727245,%rax
  4024ca:	3a 20 43 
  4024cd:	49 89 06             	mov    %rax,(%r14)
  4024d0:	48 b8 6c 69 65 6e 74 	movabs $0x6e7520746e65696c,%rax
  4024d7:	20 75 6e 
  4024da:	49 89 46 08          	mov    %rax,0x8(%r14)
  4024de:	48 b8 61 62 6c 65 20 	movabs $0x206f7420656c6261,%rax
  4024e5:	74 6f 20 
  4024e8:	49 89 46 10          	mov    %rax,0x10(%r14)
  4024ec:	48 b8 72 65 61 64 20 	movabs $0x6174732064616572,%rax
  4024f3:	73 74 61 
  4024f6:	49 89 46 18          	mov    %rax,0x18(%r14)
  4024fa:	48 b8 74 75 73 20 6d 	movabs $0x7373656d20737574,%rax
  402501:	65 73 73 
  402504:	49 89 46 20          	mov    %rax,0x20(%r14)
  402508:	48 b8 61 67 65 20 66 	movabs $0x6d6f726620656761,%rax
  40250f:	72 6f 6d 
  402512:	49 89 46 28          	mov    %rax,0x28(%r14)
  402516:	48 b8 20 73 65 72 76 	movabs $0x72657672657320,%rax
  40251d:	65 72 00 
  402520:	49 89 46 30          	mov    %rax,0x30(%r14)
  402524:	44 89 e7             	mov    %r12d,%edi
  402527:	e8 24 e6 ff ff       	callq  400b50 <close@plt>
  40252c:	b8 ff ff ff ff       	mov    $0xffffffff,%eax
  402531:	e9 32 01 00 00       	jmpq   402668 <submitr+0x7a8>
  402536:	48 8d b4 24 40 60 00 	lea    0x6040(%rsp),%rsi
  40253d:	00 
  40253e:	4c 89 f7             	mov    %r14,%rdi
  402541:	e8 ba e5 ff ff       	callq  400b00 <strcpy@plt>
  402546:	44 89 e7             	mov    %r12d,%edi
  402549:	e8 02 e6 ff ff       	callq  400b50 <close@plt>
  40254e:	41 0f b6 06          	movzbl (%r14),%eax
  402552:	83 e8 4f             	sub    $0x4f,%eax
  402555:	75 0f                	jne    402566 <submitr+0x6a6>
  402557:	41 0f b6 46 01       	movzbl 0x1(%r14),%eax
  40255c:	83 e8 4b             	sub    $0x4b,%eax
  40255f:	75 05                	jne    402566 <submitr+0x6a6>
  402561:	41 0f b6 46 02       	movzbl 0x2(%r14),%eax
  402566:	85 c0                	test   %eax,%eax
  402568:	0f 95 c0             	setne  %al
  40256b:	0f b6 c0             	movzbl %al,%eax
  40256e:	f7 d8                	neg    %eax
  402570:	e9 f3 00 00 00       	jmpq   402668 <submitr+0x7a8>
  402575:	48 8d 84 24 40 40 00 	lea    0x4040(%rsp),%rax
  40257c:	00 
  40257d:	48 89 04 24          	mov    %rax,(%rsp)
  402581:	4d 89 f9             	mov    %r15,%r9
  402584:	4c 8b 44 24 18       	mov    0x18(%rsp),%r8
  402589:	48 8b 4c 24 10       	mov    0x10(%rsp),%rcx
  40258e:	48 8b 54 24 08       	mov    0x8(%rsp),%rdx
  402593:	be 90 33 40 00       	mov    $0x403390,%esi
  402598:	48 8d bc 24 40 60 00 	lea    0x6040(%rsp),%rdi
  40259f:	00 
  4025a0:	b8 00 00 00 00       	mov    $0x0,%eax
  4025a5:	e8 86 e6 ff ff       	callq  400c30 <sprintf@plt>
  4025aa:	48 8d bc 24 40 60 00 	lea    0x6040(%rsp),%rdi
  4025b1:	00 
  4025b2:	b8 00 00 00 00       	mov    $0x0,%eax
  4025b7:	48 c7 c1 ff ff ff ff 	mov    $0xffffffffffffffff,%rcx
  4025be:	f2 ae                	repnz scas %es:(%rdi),%al
  4025c0:	48 f7 d1             	not    %rcx
  4025c3:	48 83 e9 01          	sub    $0x1,%rcx
  4025c7:	49 89 cd             	mov    %rcx,%r13
  4025ca:	0f 84 03 fd ff ff    	je     4022d3 <submitr+0x413>
  4025d0:	48 89 cb             	mov    %rcx,%rbx
  4025d3:	48 8d ac 24 40 60 00 	lea    0x6040(%rsp),%rbp
  4025da:	00 
  4025db:	e9 64 fc ff ff       	jmpq   402244 <submitr+0x384>
  4025e0:	48 b8 45 72 72 6f 72 	movabs $0x52203a726f727245,%rax
  4025e7:	3a 20 52 
  4025ea:	49 89 06             	mov    %rax,(%r14)
  4025ed:	48 b8 65 73 75 6c 74 	movabs $0x747320746c757365,%rax
  4025f4:	20 73 74 
  4025f7:	49 89 46 08          	mov    %rax,0x8(%r14)
  4025fb:	48 b8 72 69 6e 67 20 	movabs $0x6e6f6320676e6972,%rax
  402602:	63 6f 6e 
  402605:	49 89 46 10          	mov    %rax,0x10(%r14)
  402609:	48 b8 74 61 69 6e 73 	movabs $0x6e6120736e696174,%rax
  402610:	20 61 6e 
  402613:	49 89 46 18          	mov    %rax,0x18(%r14)
  402617:	48 b8 20 69 6c 6c 65 	movabs $0x6c6167656c6c6920,%rax
  40261e:	67 61 6c 
  402621:	49 89 46 20          	mov    %rax,0x20(%r14)
  402625:	48 b8 20 6f 72 20 75 	movabs $0x72706e7520726f20,%rax
  40262c:	6e 70 72 
  40262f:	49 89 46 28          	mov    %rax,0x28(%r14)
  402633:	48 b8 69 6e 74 61 62 	movabs $0x20656c6261746e69,%rax
  40263a:	6c 65 20 
  40263d:	49 89 46 30          	mov    %rax,0x30(%r14)
  402641:	48 b8 63 68 61 72 61 	movabs $0x6574636172616863,%rax
  402648:	63 74 65 
  40264b:	49 89 46 38          	mov    %rax,0x38(%r14)
  40264f:	66 41 c7 46 40 72 2e 	movw   $0x2e72,0x40(%r14)
  402656:	41 c6 46 42 00       	movb   $0x0,0x42(%r14)
  40265b:	44 89 e7             	mov    %r12d,%edi
  40265e:	e8 ed e4 ff ff       	callq  400b50 <close@plt>
  402663:	b8 ff ff ff ff       	mov    $0xffffffff,%eax
  402668:	48 81 c4 68 a0 00 00 	add    $0xa068,%rsp
  40266f:	5b                   	pop    %rbx
  402670:	5d                   	pop    %rbp
  402671:	41 5c                	pop    %r12
  402673:	41 5d                	pop    %r13
  402675:	41 5e                	pop    %r14
  402677:	41 5f                	pop    %r15
  402679:	c3                   	retq   

000000000040267a <init_timeout>:
  40267a:	53                   	push   %rbx
  40267b:	89 fb                	mov    %edi,%ebx
  40267d:	85 ff                	test   %edi,%edi
  40267f:	74 1e                	je     40269f <init_timeout+0x25>
  402681:	be 80 1d 40 00       	mov    $0x401d80,%esi
  402686:	bf 0e 00 00 00       	mov    $0xe,%edi
  40268b:	e8 00 e5 ff ff       	callq  400b90 <signal@plt>
  402690:	85 db                	test   %ebx,%ebx
  402692:	bf 00 00 00 00       	mov    $0x0,%edi
  402697:	0f 49 fb             	cmovns %ebx,%edi
  40269a:	e8 a1 e4 ff ff       	callq  400b40 <alarm@plt>
  40269f:	5b                   	pop    %rbx
  4026a0:	c3                   	retq   

00000000004026a1 <init_driver>:
  4026a1:	55                   	push   %rbp
  4026a2:	53                   	push   %rbx
  4026a3:	48 83 ec 18          	sub    $0x18,%rsp
  4026a7:	48 89 fd             	mov    %rdi,%rbp
  4026aa:	be 01 00 00 00       	mov    $0x1,%esi
  4026af:	bf 0d 00 00 00       	mov    $0xd,%edi
  4026b4:	e8 d7 e4 ff ff       	callq  400b90 <signal@plt>
  4026b9:	be 01 00 00 00       	mov    $0x1,%esi
  4026be:	bf 1d 00 00 00       	mov    $0x1d,%edi
  4026c3:	e8 c8 e4 ff ff       	callq  400b90 <signal@plt>
  4026c8:	be 01 00 00 00       	mov    $0x1,%esi
  4026cd:	bf 1d 00 00 00       	mov    $0x1d,%edi
  4026d2:	e8 b9 e4 ff ff       	callq  400b90 <signal@plt>
  4026d7:	ba 00 00 00 00       	mov    $0x0,%edx
  4026dc:	be 01 00 00 00       	mov    $0x1,%esi
  4026e1:	bf 02 00 00 00       	mov    $0x2,%edi
  4026e6:	e8 95 e5 ff ff       	callq  400c80 <socket@plt>
  4026eb:	89 c3                	mov    %eax,%ebx
  4026ed:	85 c0                	test   %eax,%eax
  4026ef:	79 4f                	jns    402740 <init_driver+0x9f>
  4026f1:	48 b8 45 72 72 6f 72 	movabs $0x43203a726f727245,%rax
  4026f8:	3a 20 43 
  4026fb:	48 89 45 00          	mov    %rax,0x0(%rbp)
  4026ff:	48 b8 6c 69 65 6e 74 	movabs $0x6e7520746e65696c,%rax
  402706:	20 75 6e 
  402709:	48 89 45 08          	mov    %rax,0x8(%rbp)
  40270d:	48 b8 61 62 6c 65 20 	movabs $0x206f7420656c6261,%rax
  402714:	74 6f 20 
  402717:	48 89 45 10          	mov    %rax,0x10(%rbp)
  40271b:	48 b8 63 72 65 61 74 	movabs $0x7320657461657263,%rax
  402722:	65 20 73 
  402725:	48 89 45 18          	mov    %rax,0x18(%rbp)
  402729:	c7 45 20 6f 63 6b 65 	movl   $0x656b636f,0x20(%rbp)
  402730:	66 c7 45 24 74 00    	movw   $0x74,0x24(%rbp)
  402736:	b8 ff ff ff ff       	mov    $0xffffffff,%eax
  40273b:	e9 f8 00 00 00       	jmpq   402838 <init_driver+0x197>
  402740:	bf 28 34 40 00       	mov    $0x403428,%edi
  402745:	e8 56 e4 ff ff       	callq  400ba0 <gethostbyname@plt>
  40274a:	48 85 c0             	test   %rax,%rax
  40274d:	75 68                	jne    4027b7 <init_driver+0x116>
  40274f:	48 b8 45 72 72 6f 72 	movabs $0x44203a726f727245,%rax
  402756:	3a 20 44 
  402759:	48 89 45 00          	mov    %rax,0x0(%rbp)
  40275d:	48 b8 4e 53 20 69 73 	movabs $0x6e7520736920534e,%rax
  402764:	20 75 6e 
  402767:	48 89 45 08          	mov    %rax,0x8(%rbp)
  40276b:	48 b8 61 62 6c 65 20 	movabs $0x206f7420656c6261,%rax
  402772:	74 6f 20 
  402775:	48 89 45 10          	mov    %rax,0x10(%rbp)
  402779:	48 b8 72 65 73 6f 6c 	movabs $0x2065766c6f736572,%rax
  402780:	76 65 20 
  402783:	48 89 45 18          	mov    %rax,0x18(%rbp)
  402787:	48 b8 73 65 72 76 65 	movabs $0x6120726576726573,%rax
  40278e:	72 20 61 
  402791:	48 89 45 20          	mov    %rax,0x20(%rbp)
  402795:	c7 45 28 64 64 72 65 	movl   $0x65726464,0x28(%rbp)
  40279c:	66 c7 45 2c 73 73    	movw   $0x7373,0x2c(%rbp)
  4027a2:	c6 45 2e 00          	movb   $0x0,0x2e(%rbp)
  4027a6:	89 df                	mov    %ebx,%edi
  4027a8:	e8 a3 e3 ff ff       	callq  400b50 <close@plt>
  4027ad:	b8 ff ff ff ff       	mov    $0xffffffff,%eax
  4027b2:	e9 81 00 00 00       	jmpq   402838 <init_driver+0x197>
  4027b7:	48 c7 04 24 00 00 00 	movq   $0x0,(%rsp)
  4027be:	00 
  4027bf:	48 c7 44 24 08 00 00 	movq   $0x0,0x8(%rsp)
  4027c6:	00 00 
  4027c8:	66 c7 04 24 02 00    	movw   $0x2,(%rsp)
  4027ce:	48 63 50 14          	movslq 0x14(%rax),%rdx
  4027d2:	48 8d 74 24 04       	lea    0x4(%rsp),%rsi
  4027d7:	48 8b 40 18          	mov    0x18(%rax),%rax
  4027db:	48 8b 38             	mov    (%rax),%rdi
  4027de:	e8 1d e4 ff ff       	callq  400c00 <bcopy@plt>
  4027e3:	66 c7 44 24 02 3b 6e 	movw   $0x6e3b,0x2(%rsp)
  4027ea:	ba 10 00 00 00       	mov    $0x10,%edx
  4027ef:	48 89 e6             	mov    %rsp,%rsi
  4027f2:	89 df                	mov    %ebx,%edi
  4027f4:	e8 57 e4 ff ff       	callq  400c50 <connect@plt>
  4027f9:	85 c0                	test   %eax,%eax
  4027fb:	79 25                	jns    402822 <init_driver+0x181>
  4027fd:	ba 28 34 40 00       	mov    $0x403428,%edx
  402802:	be e8 33 40 00       	mov    $0x4033e8,%esi
  402807:	48 89 ef             	mov    %rbp,%rdi
  40280a:	b8 00 00 00 00       	mov    $0x0,%eax
  40280f:	e8 1c e4 ff ff       	callq  400c30 <sprintf@plt>
  402814:	89 df                	mov    %ebx,%edi
  402816:	e8 35 e3 ff ff       	callq  400b50 <close@plt>
  40281b:	b8 ff ff ff ff       	mov    $0xffffffff,%eax
  402820:	eb 16                	jmp    402838 <init_driver+0x197>
  402822:	89 df                	mov    %ebx,%edi
  402824:	e8 27 e3 ff ff       	callq  400b50 <close@plt>
  402829:	66 c7 45 00 4f 4b    	movw   $0x4b4f,0x0(%rbp)
  40282f:	c6 45 02 00          	movb   $0x0,0x2(%rbp)
  402833:	b8 00 00 00 00       	mov    $0x0,%eax
  402838:	48 83 c4 18          	add    $0x18,%rsp
  40283c:	5b                   	pop    %rbx
  40283d:	5d                   	pop    %rbp
  40283e:	c3                   	retq   

000000000040283f <driver_post>:
  40283f:	53                   	push   %rbx
  402840:	48 83 ec 10          	sub    $0x10,%rsp
  402844:	4c 89 c3             	mov    %r8,%rbx
  402847:	85 c9                	test   %ecx,%ecx
  402849:	74 22                	je     40286d <driver_post+0x2e>
  40284b:	48 89 d6             	mov    %rdx,%rsi
  40284e:	bf 3b 34 40 00       	mov    $0x40343b,%edi
  402853:	b8 00 00 00 00       	mov    $0x0,%eax
  402858:	e8 d3 e2 ff ff       	callq  400b30 <printf@plt>
  40285d:	66 c7 03 4f 4b       	movw   $0x4b4f,(%rbx)
  402862:	c6 43 02 00          	movb   $0x0,0x2(%rbx)
  402866:	b8 00 00 00 00       	mov    $0x0,%eax
  40286b:	eb 43                	jmp    4028b0 <driver_post+0x71>
  40286d:	48 85 ff             	test   %rdi,%rdi
  402870:	74 30                	je     4028a2 <driver_post+0x63>
  402872:	80 3f 00             	cmpb   $0x0,(%rdi)
  402875:	74 2b                	je     4028a2 <driver_post+0x63>
  402877:	4c 89 44 24 08       	mov    %r8,0x8(%rsp)
  40287c:	48 89 14 24          	mov    %rdx,(%rsp)
  402880:	41 b9 52 34 40 00    	mov    $0x403452,%r9d
  402886:	49 89 f0             	mov    %rsi,%r8
  402889:	48 89 f9             	mov    %rdi,%rcx
  40288c:	ba 56 34 40 00       	mov    $0x403456,%edx
  402891:	be 6e 3b 00 00       	mov    $0x3b6e,%esi
  402896:	bf 28 34 40 00       	mov    $0x403428,%edi
  40289b:	e8 20 f6 ff ff       	callq  401ec0 <submitr>
  4028a0:	eb 0e                	jmp    4028b0 <driver_post+0x71>
  4028a2:	66 c7 03 4f 4b       	movw   $0x4b4f,(%rbx)
  4028a7:	c6 43 02 00          	movb   $0x0,0x2(%rbx)
  4028ab:	b8 00 00 00 00       	mov    $0x0,%eax
  4028b0:	48 83 c4 10          	add    $0x10,%rsp
  4028b4:	5b                   	pop    %rbx
  4028b5:	c3                   	retq   
  4028b6:	66 2e 0f 1f 84 00 00 	nopw   %cs:0x0(%rax,%rax,1)
  4028bd:	00 00 00 

00000000004028c0 <__libc_csu_init>:
  4028c0:	41 57                	push   %r15
  4028c2:	41 89 ff             	mov    %edi,%r15d
  4028c5:	41 56                	push   %r14
  4028c7:	49 89 f6             	mov    %rsi,%r14
  4028ca:	41 55                	push   %r13
  4028cc:	49 89 d5             	mov    %rdx,%r13
  4028cf:	41 54                	push   %r12
  4028d1:	4c 8d 25 38 15 20 00 	lea    0x201538(%rip),%r12        # 603e10 <__frame_dummy_init_array_entry>
  4028d8:	55                   	push   %rbp
  4028d9:	48 8d 2d 38 15 20 00 	lea    0x201538(%rip),%rbp        # 603e18 <__init_array_end>
  4028e0:	53                   	push   %rbx
  4028e1:	4c 29 e5             	sub    %r12,%rbp
  4028e4:	31 db                	xor    %ebx,%ebx
  4028e6:	48 c1 fd 03          	sar    $0x3,%rbp
  4028ea:	48 83 ec 08          	sub    $0x8,%rsp
  4028ee:	e8 a5 e1 ff ff       	callq  400a98 <_init>
  4028f3:	48 85 ed             	test   %rbp,%rbp
  4028f6:	74 1e                	je     402916 <__libc_csu_init+0x56>
  4028f8:	0f 1f 84 00 00 00 00 	nopl   0x0(%rax,%rax,1)
  4028ff:	00 
  402900:	4c 89 ea             	mov    %r13,%rdx
  402903:	4c 89 f6             	mov    %r14,%rsi
  402906:	44 89 ff             	mov    %r15d,%edi
  402909:	41 ff 14 dc          	callq  *(%r12,%rbx,8)
  40290d:	48 83 c3 01          	add    $0x1,%rbx
  402911:	48 39 eb             	cmp    %rbp,%rbx
  402914:	75 ea                	jne    402900 <__libc_csu_init+0x40>
  402916:	48 83 c4 08          	add    $0x8,%rsp
  40291a:	5b                   	pop    %rbx
  40291b:	5d                   	pop    %rbp
  40291c:	41 5c                	pop    %r12
  40291e:	41 5d                	pop    %r13
  402920:	41 5e                	pop    %r14
  402922:	41 5f                	pop    %r15
  402924:	c3                   	retq   
  402925:	90                   	nop
  402926:	66 2e 0f 1f 84 00 00 	nopw   %cs:0x0(%rax,%rax,1)
  40292d:	00 00 00 

0000000000402930 <__libc_csu_fini>:
  402930:	f3 c3                	repz retq 

Disassembly of section .fini:

0000000000402934 <_fini>:
  402934:	48 83 ec 08          	sub    $0x8,%rsp
  402938:	48 83 c4 08          	add    $0x8,%rsp
  40293c:	c3                   	retq   
