
ctarget:	file format ELF64-x86-64


Disassembly of section .init:

0000000000400bc8 _init:
  400bc8: 48 83 ec 08                  	subq	$8, %rsp
  400bcc: 48 8b 05 25 34 20 00         	movq	2110501(%rip), %rax
  400bd3: 48 85 c0                     	testq	%rax, %rax
  400bd6: 74 05                        	je	5 <_init+0x15>
  400bd8: e8 33 01 00 00               	callq	307 <__gmon_start__@plt>
  400bdd: 48 83 c4 08                  	addq	$8, %rsp
  400be1: c3                           	retq

Disassembly of section .plt:

0000000000400bf0 .plt:
  400bf0: ff 35 12 34 20 00            	pushq	2110482(%rip)
  400bf6: ff 25 14 34 20 00            	jmpq	*2110484(%rip)
  400bfc: 0f 1f 40 00                  	nopl	(%rax)

0000000000400c00 strcasecmp@plt:
  400c00: ff 25 12 34 20 00            	jmpq	*2110482(%rip)
  400c06: 68 00 00 00 00               	pushq	$0
  400c0b: e9 e0 ff ff ff               	jmp	-32 <.plt>

0000000000400c10 __errno_location@plt:
  400c10: ff 25 0a 34 20 00            	jmpq	*2110474(%rip)
  400c16: 68 01 00 00 00               	pushq	$1
  400c1b: e9 d0 ff ff ff               	jmp	-48 <.plt>

0000000000400c20 srandom@plt:
  400c20: ff 25 02 34 20 00            	jmpq	*2110466(%rip)
  400c26: 68 02 00 00 00               	pushq	$2
  400c2b: e9 c0 ff ff ff               	jmp	-64 <.plt>

0000000000400c30 strncmp@plt:
  400c30: ff 25 fa 33 20 00            	jmpq	*2110458(%rip)
  400c36: 68 03 00 00 00               	pushq	$3
  400c3b: e9 b0 ff ff ff               	jmp	-80 <.plt>

0000000000400c40 strcpy@plt:
  400c40: ff 25 f2 33 20 00            	jmpq	*2110450(%rip)
  400c46: 68 04 00 00 00               	pushq	$4
  400c4b: e9 a0 ff ff ff               	jmp	-96 <.plt>

0000000000400c50 puts@plt:
  400c50: ff 25 ea 33 20 00            	jmpq	*2110442(%rip)
  400c56: 68 05 00 00 00               	pushq	$5
  400c5b: e9 90 ff ff ff               	jmp	-112 <.plt>

0000000000400c60 write@plt:
  400c60: ff 25 e2 33 20 00            	jmpq	*2110434(%rip)
  400c66: 68 06 00 00 00               	pushq	$6
  400c6b: e9 80 ff ff ff               	jmp	-128 <.plt>

0000000000400c70 mmap@plt:
  400c70: ff 25 da 33 20 00            	jmpq	*2110426(%rip)
  400c76: 68 07 00 00 00               	pushq	$7
  400c7b: e9 70 ff ff ff               	jmp	-144 <.plt>

0000000000400c80 printf@plt:
  400c80: ff 25 d2 33 20 00            	jmpq	*2110418(%rip)
  400c86: 68 08 00 00 00               	pushq	$8
  400c8b: e9 60 ff ff ff               	jmp	-160 <.plt>

0000000000400c90 memset@plt:
  400c90: ff 25 ca 33 20 00            	jmpq	*2110410(%rip)
  400c96: 68 09 00 00 00               	pushq	$9
  400c9b: e9 50 ff ff ff               	jmp	-176 <.plt>

0000000000400ca0 alarm@plt:
  400ca0: ff 25 c2 33 20 00            	jmpq	*2110402(%rip)
  400ca6: 68 0a 00 00 00               	pushq	$10
  400cab: e9 40 ff ff ff               	jmp	-192 <.plt>

0000000000400cb0 close@plt:
  400cb0: ff 25 ba 33 20 00            	jmpq	*2110394(%rip)
  400cb6: 68 0b 00 00 00               	pushq	$11
  400cbb: e9 30 ff ff ff               	jmp	-208 <.plt>

0000000000400cc0 read@plt:
  400cc0: ff 25 b2 33 20 00            	jmpq	*2110386(%rip)
  400cc6: 68 0c 00 00 00               	pushq	$12
  400ccb: e9 20 ff ff ff               	jmp	-224 <.plt>

0000000000400cd0 __libc_start_main@plt:
  400cd0: ff 25 aa 33 20 00            	jmpq	*2110378(%rip)
  400cd6: 68 0d 00 00 00               	pushq	$13
  400cdb: e9 10 ff ff ff               	jmp	-240 <.plt>

0000000000400ce0 signal@plt:
  400ce0: ff 25 a2 33 20 00            	jmpq	*2110370(%rip)
  400ce6: 68 0e 00 00 00               	pushq	$14
  400ceb: e9 00 ff ff ff               	jmp	-256 <.plt>

0000000000400cf0 gethostbyname@plt:
  400cf0: ff 25 9a 33 20 00            	jmpq	*2110362(%rip)
  400cf6: 68 0f 00 00 00               	pushq	$15
  400cfb: e9 f0 fe ff ff               	jmp	-272 <.plt>

0000000000400d00 fprintf@plt:
  400d00: ff 25 92 33 20 00            	jmpq	*2110354(%rip)
  400d06: 68 10 00 00 00               	pushq	$16
  400d0b: e9 e0 fe ff ff               	jmp	-288 <.plt>

0000000000400d10 __gmon_start__@plt:
  400d10: ff 25 8a 33 20 00            	jmpq	*2110346(%rip)
  400d16: 68 11 00 00 00               	pushq	$17
  400d1b: e9 d0 fe ff ff               	jmp	-304 <.plt>

0000000000400d20 strtol@plt:
  400d20: ff 25 82 33 20 00            	jmpq	*2110338(%rip)
  400d26: 68 12 00 00 00               	pushq	$18
  400d2b: e9 c0 fe ff ff               	jmp	-320 <.plt>

0000000000400d30 memcpy@plt:
  400d30: ff 25 7a 33 20 00            	jmpq	*2110330(%rip)
  400d36: 68 13 00 00 00               	pushq	$19
  400d3b: e9 b0 fe ff ff               	jmp	-336 <.plt>

0000000000400d40 time@plt:
  400d40: ff 25 72 33 20 00            	jmpq	*2110322(%rip)
  400d46: 68 14 00 00 00               	pushq	$20
  400d4b: e9 a0 fe ff ff               	jmp	-352 <.plt>

0000000000400d50 random@plt:
  400d50: ff 25 6a 33 20 00            	jmpq	*2110314(%rip)
  400d56: 68 15 00 00 00               	pushq	$21
  400d5b: e9 90 fe ff ff               	jmp	-368 <.plt>

0000000000400d60 _IO_getc@plt:
  400d60: ff 25 62 33 20 00            	jmpq	*2110306(%rip)
  400d66: 68 16 00 00 00               	pushq	$22
  400d6b: e9 80 fe ff ff               	jmp	-384 <.plt>

0000000000400d70 __isoc99_sscanf@plt:
  400d70: ff 25 5a 33 20 00            	jmpq	*2110298(%rip)
  400d76: 68 17 00 00 00               	pushq	$23
  400d7b: e9 70 fe ff ff               	jmp	-400 <.plt>

0000000000400d80 munmap@plt:
  400d80: ff 25 52 33 20 00            	jmpq	*2110290(%rip)
  400d86: 68 18 00 00 00               	pushq	$24
  400d8b: e9 60 fe ff ff               	jmp	-416 <.plt>

0000000000400d90 bcopy@plt:
  400d90: ff 25 4a 33 20 00            	jmpq	*2110282(%rip)
  400d96: 68 19 00 00 00               	pushq	$25
  400d9b: e9 50 fe ff ff               	jmp	-432 <.plt>

0000000000400da0 fopen@plt:
  400da0: ff 25 42 33 20 00            	jmpq	*2110274(%rip)
  400da6: 68 1a 00 00 00               	pushq	$26
  400dab: e9 40 fe ff ff               	jmp	-448 <.plt>

0000000000400db0 getopt@plt:
  400db0: ff 25 3a 33 20 00            	jmpq	*2110266(%rip)
  400db6: 68 1b 00 00 00               	pushq	$27
  400dbb: e9 30 fe ff ff               	jmp	-464 <.plt>

0000000000400dc0 strtoul@plt:
  400dc0: ff 25 32 33 20 00            	jmpq	*2110258(%rip)
  400dc6: 68 1c 00 00 00               	pushq	$28
  400dcb: e9 20 fe ff ff               	jmp	-480 <.plt>

0000000000400dd0 gethostname@plt:
  400dd0: ff 25 2a 33 20 00            	jmpq	*2110250(%rip)
  400dd6: 68 1d 00 00 00               	pushq	$29
  400ddb: e9 10 fe ff ff               	jmp	-496 <.plt>

0000000000400de0 sprintf@plt:
  400de0: ff 25 22 33 20 00            	jmpq	*2110242(%rip)
  400de6: 68 1e 00 00 00               	pushq	$30
  400deb: e9 00 fe ff ff               	jmp	-512 <.plt>

0000000000400df0 exit@plt:
  400df0: ff 25 1a 33 20 00            	jmpq	*2110234(%rip)
  400df6: 68 1f 00 00 00               	pushq	$31
  400dfb: e9 f0 fd ff ff               	jmp	-528 <.plt>

0000000000400e00 connect@plt:
  400e00: ff 25 12 33 20 00            	jmpq	*2110226(%rip)
  400e06: 68 20 00 00 00               	pushq	$32
  400e0b: e9 e0 fd ff ff               	jmp	-544 <.plt>

0000000000400e10 socket@plt:
  400e10: ff 25 0a 33 20 00            	jmpq	*2110218(%rip)
  400e16: 68 21 00 00 00               	pushq	$33
  400e1b: e9 d0 fd ff ff               	jmp	-560 <.plt>

Disassembly of section .text:

0000000000400e20 _start:
  400e20: 31 ed                        	xorl	%ebp, %ebp
  400e22: 49 89 d1                     	movq	%rdx, %r9
  400e25: 5e                           	popq	%rsi
  400e26: 48 89 e2                     	movq	%rsp, %rdx
  400e29: 48 83 e4 f0                  	andq	$-16, %rsp
  400e2d: 50                           	pushq	%rax
  400e2e: 54                           	pushq	%rsp
  400e2f: 49 c7 c0 d0 2b 40 00         	movq	$4205520, %r8
  400e36: 48 c7 c1 60 2b 40 00         	movq	$4205408, %rcx
  400e3d: 48 c7 c7 e0 10 40 00         	movq	$4198624, %rdi
  400e44: e8 87 fe ff ff               	callq	-377 <__libc_start_main@plt>
  400e49: f4                           	hlt
  400e4a: 66 0f 1f 44 00 00            	nopw	(%rax,%rax)

0000000000400e50 deregister_tm_clones:
  400e50: b8 b7 44 60 00               	movl	$6309047, %eax
  400e55: 55                           	pushq	%rbp
  400e56: 48 2d b0 44 60 00            	subq	$6309040, %rax
  400e5c: 48 83 f8 0e                  	cmpq	$14, %rax
  400e60: 48 89 e5                     	movq	%rsp, %rbp
  400e63: 77 02                        	ja	2 <deregister_tm_clones+0x17>
  400e65: 5d                           	popq	%rbp
  400e66: c3                           	retq
  400e67: b8 00 00 00 00               	movl	$0, %eax
  400e6c: 48 85 c0                     	testq	%rax, %rax
  400e6f: 74 f4                        	je	-12 <deregister_tm_clones+0x15>
  400e71: 5d                           	popq	%rbp
  400e72: bf b0 44 60 00               	movl	$6309040, %edi
  400e77: ff e0                        	jmpq	*%rax
  400e79: 0f 1f 80 00 00 00 00         	nopl	(%rax)

0000000000400e80 register_tm_clones:
  400e80: b8 b0 44 60 00               	movl	$6309040, %eax
  400e85: 55                           	pushq	%rbp
  400e86: 48 2d b0 44 60 00            	subq	$6309040, %rax
  400e8c: 48 c1 f8 03                  	sarq	$3, %rax
  400e90: 48 89 e5                     	movq	%rsp, %rbp
  400e93: 48 89 c2                     	movq	%rax, %rdx
  400e96: 48 c1 ea 3f                  	shrq	$63, %rdx
  400e9a: 48 01 d0                     	addq	%rdx, %rax
  400e9d: 48 d1 f8                     	sarq	%rax
  400ea0: 75 02                        	jne	2 <register_tm_clones+0x24>
  400ea2: 5d                           	popq	%rbp
  400ea3: c3                           	retq
  400ea4: ba 00 00 00 00               	movl	$0, %edx
  400ea9: 48 85 d2                     	testq	%rdx, %rdx
  400eac: 74 f4                        	je	-12 <register_tm_clones+0x22>
  400eae: 5d                           	popq	%rbp
  400eaf: 48 89 c6                     	movq	%rax, %rsi
  400eb2: bf b0 44 60 00               	movl	$6309040, %edi
  400eb7: ff e2                        	jmpq	*%rdx
  400eb9: 0f 1f 80 00 00 00 00         	nopl	(%rax)

0000000000400ec0 __do_global_dtors_aux:
  400ec0: 80 3d 11 36 20 00 00         	cmpb	$0, 2110993(%rip)
  400ec7: 75 11                        	jne	17 <__do_global_dtors_aux+0x1a>
  400ec9: 55                           	pushq	%rbp
  400eca: 48 89 e5                     	movq	%rsp, %rbp
  400ecd: e8 7e ff ff ff               	callq	-130 <deregister_tm_clones>
  400ed2: 5d                           	popq	%rbp
  400ed3: c6 05 fe 35 20 00 01         	movb	$1, 2110974(%rip)
  400eda: f3 c3                        	rep		retq
  400edc: 0f 1f 40 00                  	nopl	(%rax)

0000000000400ee0 frame_dummy:
  400ee0: 48 83 3d 38 2f 20 00 00      	cmpq	$0, 2109240(%rip)
  400ee8: 74 1e                        	je	30 <frame_dummy+0x28>
  400eea: b8 00 00 00 00               	movl	$0, %eax
  400eef: 48 85 c0                     	testq	%rax, %rax
  400ef2: 74 14                        	je	20 <frame_dummy+0x28>
  400ef4: 55                           	pushq	%rbp
  400ef5: bf 20 3e 60 00               	movl	$6307360, %edi
  400efa: 48 89 e5                     	movq	%rsp, %rbp
  400efd: ff d0                        	callq	*%rax
  400eff: 5d                           	popq	%rbp
  400f00: e9 7b ff ff ff               	jmp	-133 <register_tm_clones>
  400f05: 0f 1f 00                     	nopl	(%rax)
  400f08: e9 73 ff ff ff               	jmp	-141 <register_tm_clones>
  400f0d: 0f 1f 00                     	nopl	(%rax)

0000000000400f10 usage:
  400f10: 48 83 ec 08                  	subq	$8, %rsp
  400f14: 48 89 fe                     	movq	%rdi, %rsi
  400f17: 83 3d ea 35 20 00 00         	cmpl	$0, 2110954(%rip)
  400f1e: 74 39                        	je	57 <usage+0x49>
  400f20: bf f0 2b 40 00               	movl	$4205552, %edi
  400f25: b8 00 00 00 00               	movl	$0, %eax
  400f2a: e8 51 fd ff ff               	callq	-687 <printf@plt>
  400f2f: bf 28 2c 40 00               	movl	$4205608, %edi
  400f34: e8 17 fd ff ff               	callq	-745 <puts@plt>
  400f39: bf a0 2d 40 00               	movl	$4205984, %edi
  400f3e: e8 0d fd ff ff               	callq	-755 <puts@plt>
  400f43: bf 50 2c 40 00               	movl	$4205648, %edi
  400f48: e8 03 fd ff ff               	callq	-765 <puts@plt>
  400f4d: bf ba 2d 40 00               	movl	$4206010, %edi
  400f52: e8 f9 fc ff ff               	callq	-775 <puts@plt>
  400f57: eb 2d                        	jmp	45 <usage+0x76>
  400f59: bf d6 2d 40 00               	movl	$4206038, %edi
  400f5e: b8 00 00 00 00               	movl	$0, %eax
  400f63: e8 18 fd ff ff               	callq	-744 <printf@plt>
  400f68: bf 78 2c 40 00               	movl	$4205688, %edi
  400f6d: e8 de fc ff ff               	callq	-802 <puts@plt>
  400f72: bf a0 2c 40 00               	movl	$4205728, %edi
  400f77: e8 d4 fc ff ff               	callq	-812 <puts@plt>
  400f7c: bf f4 2d 40 00               	movl	$4206068, %edi
  400f81: e8 ca fc ff ff               	callq	-822 <puts@plt>
  400f86: bf 00 00 00 00               	movl	$0, %edi
  400f8b: e8 60 fe ff ff               	callq	-416 <exit@plt>

0000000000400f90 initialize_target:
  400f90: 55                           	pushq	%rbp
  400f91: 53                           	pushq	%rbx
  400f92: 48 81 ec 08 21 00 00         	subq	$8456, %rsp
  400f99: 89 f5                        	movl	%esi, %ebp
  400f9b: 89 3d 57 35 20 00            	movl	%edi, 2110807(%rip)
  400fa1: 8b 3d c1 31 20 00            	movl	2109889(%rip), %edi
  400fa7: e8 87 1b 00 00               	callq	7047 <gencookie>
  400fac: 89 05 52 35 20 00            	movl	%eax, 2110802(%rip)
  400fb2: 89 c7                        	movl	%eax, %edi
  400fb4: e8 7a 1b 00 00               	callq	7034 <gencookie>
  400fb9: 89 05 41 35 20 00            	movl	%eax, 2110785(%rip)
  400fbf: 8b 05 a3 31 20 00            	movl	2109859(%rip), %eax
  400fc5: 8d 78 01                     	leal	1(%rax), %edi
  400fc8: e8 53 fc ff ff               	callq	-941 <srandom@plt>
  400fcd: e8 7e fd ff ff               	callq	-642 <random@plt>
  400fd2: 89 c7                        	movl	%eax, %edi
  400fd4: e8 ca 02 00 00               	callq	714 <scramble>
  400fd9: 89 c3                        	movl	%eax, %ebx
  400fdb: 85 ed                        	testl	%ebp, %ebp
  400fdd: 74 18                        	je	24 <initialize_target+0x67>
  400fdf: bf 00 00 00 00               	movl	$0, %edi
  400fe4: e8 57 fd ff ff               	callq	-681 <time@plt>
  400fe9: 89 c7                        	movl	%eax, %edi
  400feb: e8 30 fc ff ff               	callq	-976 <srandom@plt>
  400ff0: e8 5b fd ff ff               	callq	-677 <random@plt>
  400ff5: eb 05                        	jmp	5 <initialize_target+0x6c>
  400ff7: b8 00 00 00 00               	movl	$0, %eax
  400ffc: 01 c3                        	addl	%eax, %ebx
  400ffe: 0f b7 db                     	movzwl	%bx, %ebx
  401001: 8d 04 dd 00 01 00 00         	leal	256(,%rbx,8), %eax
  401008: 89 c0                        	movl	%eax, %eax
  40100a: 48 89 05 8f 34 20 00         	movq	%rax, 2110607(%rip)
  401011: c6 05 10 41 20 00 63         	movb	$99, 2113808(%rip)
  401018: 83 3d 89 34 20 00 00         	cmpl	$0, 2110601(%rip)
  40101f: 0f 84 b1 00 00 00            	je	177 <initialize_target+0x146>
  401025: 83 3d dc 34 20 00 00         	cmpl	$0, 2110684(%rip)
  40102c: 0f 85 a4 00 00 00            	jne	164 <initialize_target+0x146>
  401032: be 00 01 00 00               	movl	$256, %esi
  401037: 48 89 e7                     	movq	%rsp, %rdi
  40103a: e8 91 fd ff ff               	callq	-623 <gethostname@plt>
  40103f: 85 c0                        	testl	%eax, %eax
  401041: 74 25                        	je	37 <initialize_target+0xd8>
  401043: bf d0 2c 40 00               	movl	$4205776, %edi
  401048: e8 03 fc ff ff               	callq	-1021 <puts@plt>
  40104d: bf 08 00 00 00               	movl	$8, %edi
  401052: e8 99 fd ff ff               	callq	-615 <exit@plt>
  401057: 48 89 e6                     	movq	%rsp, %rsi
  40105a: e8 a1 fb ff ff               	callq	-1119 <strcasecmp@plt>
  40105f: 85 c0                        	testl	%eax, %eax
  401061: 74 21                        	je	33 <initialize_target+0xf4>
  401063: 83 c3 01                     	addl	$1, %ebx
  401066: eb 05                        	jmp	5 <initialize_target+0xdd>
  401068: bb 00 00 00 00               	movl	$0, %ebx
  40106d: 48 63 c3                     	movslq	%ebx, %rax
  401070: 48 8b 3c c5 80 41 60 00      	movq	6308224(,%rax,8), %rdi
  401078: 48 85 ff                     	testq	%rdi, %rdi
  40107b: 75 da                        	jne	-38 <initialize_target+0xc7>
  40107d: b8 00 00 00 00               	movl	$0, %eax
  401082: eb 05                        	jmp	5 <initialize_target+0xf9>
  401084: b8 01 00 00 00               	movl	$1, %eax
  401089: 85 c0                        	testl	%eax, %eax
  40108b: 75 17                        	jne	23 <initialize_target+0x114>
  40108d: 48 89 e6                     	movq	%rsp, %rsi
  401090: bf 08 2d 40 00               	movl	$4205832, %edi
  401095: e8 e6 fb ff ff               	callq	-1050 <printf@plt>
  40109a: bf 08 00 00 00               	movl	$8, %edi
  40109f: e8 4c fd ff ff               	callq	-692 <exit@plt>
  4010a4: 48 8d bc 24 00 01 00 00      	leaq	256(%rsp), %rdi
  4010ac: e8 19 18 00 00               	callq	6169 <init_driver>
  4010b1: 85 c0                        	testl	%eax, %eax
  4010b3: 79 21                        	jns	33 <initialize_target+0x146>
  4010b5: 48 8d b4 24 00 01 00 00      	leaq	256(%rsp), %rsi
  4010bd: bf 48 2d 40 00               	movl	$4205896, %edi
  4010c2: b8 00 00 00 00               	movl	$0, %eax
  4010c7: e8 b4 fb ff ff               	callq	-1100 <printf@plt>
  4010cc: bf 08 00 00 00               	movl	$8, %edi
  4010d1: e8 1a fd ff ff               	callq	-742 <exit@plt>
  4010d6: 48 81 c4 08 21 00 00         	addq	$8456, %rsp
  4010dd: 5b                           	popq	%rbx
  4010de: 5d                           	popq	%rbp
  4010df: c3                           	retq

00000000004010e0 main:
  4010e0: 41 56                        	pushq	%r14
  4010e2: 41 55                        	pushq	%r13
  4010e4: 41 54                        	pushq	%r12
  4010e6: 55                           	pushq	%rbp
  4010e7: 53                           	pushq	%rbx
  4010e8: 41 89 fc                     	movl	%edi, %r12d
  4010eb: 48 89 f3                     	movq	%rsi, %rbx
  4010ee: be f1 1c 40 00               	movl	$4201713, %esi
  4010f3: bf 0b 00 00 00               	movl	$11, %edi
  4010f8: e8 e3 fb ff ff               	callq	-1053 <signal@plt>
  4010fd: be a3 1c 40 00               	movl	$4201635, %esi
  401102: bf 07 00 00 00               	movl	$7, %edi
  401107: e8 d4 fb ff ff               	callq	-1068 <signal@plt>
  40110c: be 3f 1d 40 00               	movl	$4201791, %esi
  401111: bf 04 00 00 00               	movl	$4, %edi
  401116: e8 c5 fb ff ff               	callq	-1083 <signal@plt>
  40111b: 83 3d e6 33 20 00 00         	cmpl	$0, 2110438(%rip)
  401122: 74 20                        	je	32 <main+0x64>
  401124: be 8d 1d 40 00               	movl	$4201869, %esi
  401129: bf 0e 00 00 00               	movl	$14, %edi
  40112e: e8 ad fb ff ff               	callq	-1107 <signal@plt>
  401133: bf 05 00 00 00               	movl	$5, %edi
  401138: e8 63 fb ff ff               	callq	-1181 <alarm@plt>
  40113d: bd 12 2e 40 00               	movl	$4206098, %ebp
  401142: eb 05                        	jmp	5 <main+0x69>
  401144: bd 0d 2e 40 00               	movl	$4206093, %ebp
  401149: 48 8b 05 70 33 20 00         	movq	2110320(%rip), %rax
  401150: 48 89 05 99 33 20 00         	movq	%rax, 2110361(%rip)
  401157: 41 bd 00 00 00 00            	movl	$0, %r13d
  40115d: 41 be 00 00 00 00            	movl	$0, %r14d
  401163: e9 b9 00 00 00               	jmp	185 <main+0x141>
  401168: 83 e8 61                     	subl	$97, %eax
  40116b: 3c 10                        	cmpb	$16, %al
  40116d: 0f 87 93 00 00 00            	ja	147 <main+0x126>
  401173: 0f b6 c0                     	movzbl	%al, %eax
  401176: ff 24 c5 58 2e 40 00         	jmpq	*4206168(,%rax,8)
  40117d: 48 8b 3b                     	movq	(%rbx), %rdi
  401180: e8 8b fd ff ff               	callq	-629 <usage>
  401185: be bd 31 40 00               	movl	$4207037, %esi
  40118a: 48 8b 3d 37 33 20 00         	movq	2110263(%rip), %rdi
  401191: e8 0a fc ff ff               	callq	-1014 <fopen@plt>
  401196: 48 89 05 53 33 20 00         	movq	%rax, 2110291(%rip)
  40119d: 48 85 c0                     	testq	%rax, %rax
  4011a0: 75 7f                        	jne	127 <main+0x141>
  4011a2: 48 8b 15 1f 33 20 00         	movq	2110239(%rip), %rdx
  4011a9: be 1a 2e 40 00               	movl	$4206106, %esi
  4011ae: 48 8b 3d 1b 33 20 00         	movq	2110235(%rip), %rdi
  4011b5: e8 46 fb ff ff               	callq	-1210 <fprintf@plt>
  4011ba: b8 01 00 00 00               	movl	$1, %eax
  4011bf: e9 d6 00 00 00               	jmp	214 <main+0x1ba>
  4011c4: ba 10 00 00 00               	movl	$16, %edx
  4011c9: be 00 00 00 00               	movl	$0, %esi
  4011ce: 48 8b 3d f3 32 20 00         	movq	2110195(%rip), %rdi
  4011d5: e8 e6 fb ff ff               	callq	-1050 <strtoul@plt>
  4011da: 41 89 c6                     	movl	%eax, %r14d
  4011dd: eb 42                        	jmp	66 <main+0x141>
  4011df: ba 0a 00 00 00               	movl	$10, %edx
  4011e4: be 00 00 00 00               	movl	$0, %esi
  4011e9: 48 8b 3d d8 32 20 00         	movq	2110168(%rip), %rdi
  4011f0: e8 2b fb ff ff               	callq	-1237 <strtol@plt>
  4011f5: 41 89 c5                     	movl	%eax, %r13d
  4011f8: eb 27                        	jmp	39 <main+0x141>
  4011fa: c7 05 a4 32 20 00 00 00 00 00	movl	$0, 2110116(%rip)
  401204: eb 1b                        	jmp	27 <main+0x141>
  401206: 40 0f be f6                  	movsbl	%sil, %esi
  40120a: bf 37 2e 40 00               	movl	$4206135, %edi
  40120f: b8 00 00 00 00               	movl	$0, %eax
  401214: e8 67 fa ff ff               	callq	-1433 <printf@plt>
  401219: 48 8b 3b                     	movq	(%rbx), %rdi
  40121c: e8 ef fc ff ff               	callq	-785 <usage>
  401221: 48 89 ea                     	movq	%rbp, %rdx
  401224: 48 89 de                     	movq	%rbx, %rsi
  401227: 44 89 e7                     	movl	%r12d, %edi
  40122a: e8 81 fb ff ff               	callq	-1151 <getopt@plt>
  40122f: 89 c6                        	movl	%eax, %esi
  401231: 3c ff                        	cmpb	$-1, %al
  401233: 0f 85 2f ff ff ff            	jne	-209 <main+0x88>
  401239: be 00 00 00 00               	movl	$0, %esi
  40123e: 44 89 ef                     	movl	%r13d, %edi
  401241: e8 4a fd ff ff               	callq	-694 <initialize_target>
  401246: 83 3d bb 32 20 00 00         	cmpl	$0, 2110139(%rip)
  40124d: 74 25                        	je	37 <main+0x194>
  40124f: 44 3b 35 aa 32 20 00         	cmpl	2110122(%rip), %r14d
  401256: 74 1c                        	je	28 <main+0x194>
  401258: 44 89 f6                     	movl	%r14d, %esi
  40125b: bf 70 2d 40 00               	movl	$4205936, %edi
  401260: b8 00 00 00 00               	movl	$0, %eax
  401265: e8 16 fa ff ff               	callq	-1514 <printf@plt>
  40126a: b8 00 00 00 00               	movl	$0, %eax
  40126f: e8 37 07 00 00               	callq	1847 <check_fail>
  401274: 8b 35 8a 32 20 00            	movl	2110090(%rip), %esi
  40127a: bf 4a 2e 40 00               	movl	$4206154, %edi
  40127f: b8 00 00 00 00               	movl	$0, %eax
  401284: e8 f7 f9 ff ff               	callq	-1545 <printf@plt>
  401289: 48 8b 3d 10 32 20 00         	movq	2109968(%rip), %rdi
  401290: e8 c7 0b 00 00               	callq	3015 <stable_launch>
  401295: b8 00 00 00 00               	movl	$0, %eax
  40129a: 5b                           	popq	%rbx
  40129b: 5d                           	popq	%rbp
  40129c: 41 5c                        	popq	%r12
  40129e: 41 5d                        	popq	%r13
  4012a0: 41 5e                        	popq	%r14
  4012a2: c3                           	retq

00000000004012a3 scramble:
  4012a3: b8 00 00 00 00               	movl	$0, %eax
  4012a8: eb 11                        	jmp	17 <scramble+0x18>
  4012aa: 69 c8 03 eb 00 00            	imull	$60163, %eax, %ecx
  4012b0: 01 f9                        	addl	%edi, %ecx
  4012b2: 89 c2                        	movl	%eax, %edx
  4012b4: 89 4c 94 d0                  	movl	%ecx, -48(%rsp,%rdx,4)
  4012b8: 83 c0 01                     	addl	$1, %eax
  4012bb: 83 f8 09                     	cmpl	$9, %eax
  4012be: 76 ea                        	jbe	-22 <scramble+0x7>
  4012c0: 8b 44 24 f4                  	movl	-12(%rsp), %eax
  4012c4: 69 c0 9a 19 00 00            	imull	$6554, %eax, %eax
  4012ca: 89 44 24 f4                  	movl	%eax, -12(%rsp)
  4012ce: 8b 44 24 e0                  	movl	-32(%rsp), %eax
  4012d2: 69 c0 9f de 00 00            	imull	$56991, %eax, %eax
  4012d8: 89 44 24 e0                  	movl	%eax, -32(%rsp)
  4012dc: 8b 44 24 f4                  	movl	-12(%rsp), %eax
  4012e0: 69 c0 16 c2 00 00            	imull	$49686, %eax, %eax
  4012e6: 89 44 24 f4                  	movl	%eax, -12(%rsp)
  4012ea: 8b 44 24 ec                  	movl	-20(%rsp), %eax
  4012ee: 69 c0 90 84 00 00            	imull	$33936, %eax, %eax
  4012f4: 89 44 24 ec                  	movl	%eax, -20(%rsp)
  4012f8: 8b 44 24 d4                  	movl	-44(%rsp), %eax
  4012fc: 69 c0 32 7f 00 00            	imull	$32562, %eax, %eax
  401302: 89 44 24 d4                  	movl	%eax, -44(%rsp)
  401306: 8b 44 24 f4                  	movl	-12(%rsp), %eax
  40130a: 69 c0 1d 5f 00 00            	imull	$24349, %eax, %eax
  401310: 89 44 24 f4                  	movl	%eax, -12(%rsp)
  401314: 8b 44 24 e4                  	movl	-28(%rsp), %eax
  401318: 69 c0 65 8d 00 00            	imull	$36197, %eax, %eax
  40131e: 89 44 24 e4                  	movl	%eax, -28(%rsp)
  401322: 8b 44 24 e0                  	movl	-32(%rsp), %eax
  401326: 69 c0 51 66 00 00            	imull	$26193, %eax, %eax
  40132c: 89 44 24 e0                  	movl	%eax, -32(%rsp)
  401330: 8b 44 24 d0                  	movl	-48(%rsp), %eax
  401334: 69 c0 ac 47 00 00            	imull	$18348, %eax, %eax
  40133a: 89 44 24 d0                  	movl	%eax, -48(%rsp)
  40133e: 8b 44 24 d8                  	movl	-40(%rsp), %eax
  401342: 69 c0 6a f1 00 00            	imull	$61802, %eax, %eax
  401348: 89 44 24 d8                  	movl	%eax, -40(%rsp)
  40134c: 8b 44 24 d4                  	movl	-44(%rsp), %eax
  401350: 69 c0 18 06 00 00            	imull	$1560, %eax, %eax
  401356: 89 44 24 d4                  	movl	%eax, -44(%rsp)
  40135a: 8b 44 24 e0                  	movl	-32(%rsp), %eax
  40135e: 69 c0 7a 71 00 00            	imull	$29050, %eax, %eax
  401364: 89 44 24 e0                  	movl	%eax, -32(%rsp)
  401368: 8b 44 24 e0                  	movl	-32(%rsp), %eax
  40136c: 69 c0 fa e1 00 00            	imull	$57850, %eax, %eax
  401372: 89 44 24 e0                  	movl	%eax, -32(%rsp)
  401376: 8b 44 24 d8                  	movl	-40(%rsp), %eax
  40137a: 69 c0 71 5f 00 00            	imull	$24433, %eax, %eax
  401380: 89 44 24 d8                  	movl	%eax, -40(%rsp)
  401384: 8b 44 24 d4                  	movl	-44(%rsp), %eax
  401388: 69 c0 3a bc 00 00            	imull	$48186, %eax, %eax
  40138e: 89 44 24 d4                  	movl	%eax, -44(%rsp)
  401392: 8b 44 24 ec                  	movl	-20(%rsp), %eax
  401396: 69 c0 db f6 00 00            	imull	$63195, %eax, %eax
  40139c: 89 44 24 ec                  	movl	%eax, -20(%rsp)
  4013a0: 8b 44 24 e8                  	movl	-24(%rsp), %eax
  4013a4: 69 c0 2b 01 00 00            	imull	$299, %eax, %eax
  4013aa: 89 44 24 e8                  	movl	%eax, -24(%rsp)
  4013ae: 8b 44 24 e4                  	movl	-28(%rsp), %eax
  4013b2: 69 c0 a3 40 00 00            	imull	$16547, %eax, %eax
  4013b8: 89 44 24 e4                  	movl	%eax, -28(%rsp)
  4013bc: 8b 44 24 ec                  	movl	-20(%rsp), %eax
  4013c0: 69 c0 05 13 00 00            	imull	$4869, %eax, %eax
  4013c6: 89 44 24 ec                  	movl	%eax, -20(%rsp)
  4013ca: 8b 44 24 ec                  	movl	-20(%rsp), %eax
  4013ce: 69 c0 10 23 00 00            	imull	$8976, %eax, %eax
  4013d4: 89 44 24 ec                  	movl	%eax, -20(%rsp)
  4013d8: 8b 44 24 d0                  	movl	-48(%rsp), %eax
  4013dc: 69 c0 ee c3 00 00            	imull	$50158, %eax, %eax
  4013e2: 89 44 24 d0                  	movl	%eax, -48(%rsp)
  4013e6: 8b 44 24 f4                  	movl	-12(%rsp), %eax
  4013ea: 69 c0 67 95 00 00            	imull	$38247, %eax, %eax
  4013f0: 89 44 24 f4                  	movl	%eax, -12(%rsp)
  4013f4: 8b 44 24 e8                  	movl	-24(%rsp), %eax
  4013f8: 69 c0 0d 15 00 00            	imull	$5389, %eax, %eax
  4013fe: 89 44 24 e8                  	movl	%eax, -24(%rsp)
  401402: 8b 44 24 d4                  	movl	-44(%rsp), %eax
  401406: 69 c0 bc ba 00 00            	imull	$47804, %eax, %eax
  40140c: 89 44 24 d4                  	movl	%eax, -44(%rsp)
  401410: 8b 44 24 e8                  	movl	-24(%rsp), %eax
  401414: 69 c0 8d 03 00 00            	imull	$909, %eax, %eax
  40141a: 89 44 24 e8                  	movl	%eax, -24(%rsp)
  40141e: 8b 44 24 d4                  	movl	-44(%rsp), %eax
  401422: 69 c0 2f 0c 00 00            	imull	$3119, %eax, %eax
  401428: 89 44 24 d4                  	movl	%eax, -44(%rsp)
  40142c: 8b 44 24 f4                  	movl	-12(%rsp), %eax
  401430: 69 c0 cb d2 00 00            	imull	$53963, %eax, %eax
  401436: 89 44 24 f4                  	movl	%eax, -12(%rsp)
  40143a: 8b 44 24 f4                  	movl	-12(%rsp), %eax
  40143e: 69 c0 d0 ad 00 00            	imull	$44496, %eax, %eax
  401444: 89 44 24 f4                  	movl	%eax, -12(%rsp)
  401448: 8b 44 24 d4                  	movl	-44(%rsp), %eax
  40144c: 69 c0 56 4c 00 00            	imull	$19542, %eax, %eax
  401452: 89 44 24 d4                  	movl	%eax, -44(%rsp)
  401456: 8b 44 24 f0                  	movl	-16(%rsp), %eax
  40145a: 69 c0 9d c0 00 00            	imull	$49309, %eax, %eax
  401460: 89 44 24 f0                  	movl	%eax, -16(%rsp)
  401464: 8b 44 24 d0                  	movl	-48(%rsp), %eax
  401468: 69 c0 c0 22 00 00            	imull	$8896, %eax, %eax
  40146e: 89 44 24 d0                  	movl	%eax, -48(%rsp)
  401472: 8b 44 24 f4                  	movl	-12(%rsp), %eax
  401476: 69 c0 65 de 00 00            	imull	$56933, %eax, %eax
  40147c: 89 44 24 f4                  	movl	%eax, -12(%rsp)
  401480: 8b 44 24 f0                  	movl	-16(%rsp), %eax
  401484: 69 c0 f2 8c 00 00            	imull	$36082, %eax, %eax
  40148a: 89 44 24 f0                  	movl	%eax, -16(%rsp)
  40148e: 8b 44 24 e8                  	movl	-24(%rsp), %eax
  401492: 69 c0 2c e7 00 00            	imull	$59180, %eax, %eax
  401498: 89 44 24 e8                  	movl	%eax, -24(%rsp)
  40149c: 8b 44 24 f4                  	movl	-12(%rsp), %eax
  4014a0: 69 c0 3c e4 00 00            	imull	$58428, %eax, %eax
  4014a6: 89 44 24 f4                  	movl	%eax, -12(%rsp)
  4014aa: 8b 44 24 d0                  	movl	-48(%rsp), %eax
  4014ae: 69 c0 2f 32 00 00            	imull	$12847, %eax, %eax
  4014b4: 89 44 24 d0                  	movl	%eax, -48(%rsp)
  4014b8: 8b 44 24 d8                  	movl	-40(%rsp), %eax
  4014bc: 69 c0 6b 8c 00 00            	imull	$35947, %eax, %eax
  4014c2: 89 44 24 d8                  	movl	%eax, -40(%rsp)
  4014c6: 8b 44 24 f0                  	movl	-16(%rsp), %eax
  4014ca: 69 c0 7e f9 00 00            	imull	$63870, %eax, %eax
  4014d0: 89 44 24 f0                  	movl	%eax, -16(%rsp)
  4014d4: 8b 44 24 e8                  	movl	-24(%rsp), %eax
  4014d8: 69 c0 4f c3 00 00            	imull	$49999, %eax, %eax
  4014de: 89 44 24 e8                  	movl	%eax, -24(%rsp)
  4014e2: 8b 44 24 f0                  	movl	-16(%rsp), %eax
  4014e6: 69 c0 31 fe 00 00            	imull	$65073, %eax, %eax
  4014ec: 89 44 24 f0                  	movl	%eax, -16(%rsp)
  4014f0: 8b 44 24 e8                  	movl	-24(%rsp), %eax
  4014f4: 69 c0 60 60 00 00            	imull	$24672, %eax, %eax
  4014fa: 89 44 24 e8                  	movl	%eax, -24(%rsp)
  4014fe: 8b 44 24 f4                  	movl	-12(%rsp), %eax
  401502: 69 c0 81 d0 00 00            	imull	$53377, %eax, %eax
  401508: 89 44 24 f4                  	movl	%eax, -12(%rsp)
  40150c: 8b 44 24 ec                  	movl	-20(%rsp), %eax
  401510: 69 c0 0a 88 00 00            	imull	$34826, %eax, %eax
  401516: 89 44 24 ec                  	movl	%eax, -20(%rsp)
  40151a: 8b 44 24 d0                  	movl	-48(%rsp), %eax
  40151e: 69 c0 f0 e7 00 00            	imull	$59376, %eax, %eax
  401524: 89 44 24 d0                  	movl	%eax, -48(%rsp)
  401528: 8b 44 24 d8                  	movl	-40(%rsp), %eax
  40152c: 69 c0 92 8b 00 00            	imull	$35730, %eax, %eax
  401532: 89 44 24 d8                  	movl	%eax, -40(%rsp)
  401536: 8b 44 24 e4                  	movl	-28(%rsp), %eax
  40153a: 69 c0 f0 dc 00 00            	imull	$56560, %eax, %eax
  401540: 89 44 24 e4                  	movl	%eax, -28(%rsp)
  401544: 8b 44 24 f0                  	movl	-16(%rsp), %eax
  401548: 69 c0 06 60 00 00            	imull	$24582, %eax, %eax
  40154e: 89 44 24 f0                  	movl	%eax, -16(%rsp)
  401552: 8b 44 24 dc                  	movl	-36(%rsp), %eax
  401556: 69 c0 3e d2 00 00            	imull	$53822, %eax, %eax
  40155c: 89 44 24 dc                  	movl	%eax, -36(%rsp)
  401560: 8b 44 24 d4                  	movl	-44(%rsp), %eax
  401564: 69 c0 5e da 00 00            	imull	$55902, %eax, %eax
  40156a: 89 44 24 d4                  	movl	%eax, -44(%rsp)
  40156e: 8b 44 24 e8                  	movl	-24(%rsp), %eax
  401572: 69 c0 f1 8c 00 00            	imull	$36081, %eax, %eax
  401578: 89 44 24 e8                  	movl	%eax, -24(%rsp)
  40157c: 8b 44 24 e8                  	movl	-24(%rsp), %eax
  401580: 69 c0 a8 c3 00 00            	imull	$50088, %eax, %eax
  401586: 89 44 24 e8                  	movl	%eax, -24(%rsp)
  40158a: 8b 44 24 e4                  	movl	-28(%rsp), %eax
  40158e: 69 c0 c5 66 00 00            	imull	$26309, %eax, %eax
  401594: 89 44 24 e4                  	movl	%eax, -28(%rsp)
  401598: 8b 44 24 f4                  	movl	-12(%rsp), %eax
  40159c: 69 c0 b7 86 00 00            	imull	$34487, %eax, %eax
  4015a2: 89 44 24 f4                  	movl	%eax, -12(%rsp)
  4015a6: 8b 44 24 d0                  	movl	-48(%rsp), %eax
  4015aa: 69 c0 8b f1 00 00            	imull	$61835, %eax, %eax
  4015b0: 89 44 24 d0                  	movl	%eax, -48(%rsp)
  4015b4: 8b 44 24 e0                  	movl	-32(%rsp), %eax
  4015b8: 69 c0 7d 14 00 00            	imull	$5245, %eax, %eax
  4015be: 89 44 24 e0                  	movl	%eax, -32(%rsp)
  4015c2: 8b 44 24 ec                  	movl	-20(%rsp), %eax
  4015c6: 69 c0 e2 10 00 00            	imull	$4322, %eax, %eax
  4015cc: 89 44 24 ec                  	movl	%eax, -20(%rsp)
  4015d0: 8b 44 24 d4                  	movl	-44(%rsp), %eax
  4015d4: 69 c0 1c fa 00 00            	imull	$64028, %eax, %eax
  4015da: 89 44 24 d4                  	movl	%eax, -44(%rsp)
  4015de: 8b 44 24 e8                  	movl	-24(%rsp), %eax
  4015e2: 69 c0 08 a8 00 00            	imull	$43016, %eax, %eax
  4015e8: 89 44 24 e8                  	movl	%eax, -24(%rsp)
  4015ec: 8b 44 24 f0                  	movl	-16(%rsp), %eax
  4015f0: 69 c0 b5 5f 00 00            	imull	$24501, %eax, %eax
  4015f6: 89 44 24 f0                  	movl	%eax, -16(%rsp)
  4015fa: 8b 44 24 d4                  	movl	-44(%rsp), %eax
  4015fe: 69 c0 86 56 00 00            	imull	$22150, %eax, %eax
  401604: 89 44 24 d4                  	movl	%eax, -44(%rsp)
  401608: 8b 44 24 f4                  	movl	-12(%rsp), %eax
  40160c: 69 c0 86 38 00 00            	imull	$14470, %eax, %eax
  401612: 89 44 24 f4                  	movl	%eax, -12(%rsp)
  401616: 8b 44 24 ec                  	movl	-20(%rsp), %eax
  40161a: 69 c0 9a 99 00 00            	imull	$39322, %eax, %eax
  401620: 89 44 24 ec                  	movl	%eax, -20(%rsp)
  401624: 8b 44 24 e4                  	movl	-28(%rsp), %eax
  401628: 69 c0 cd ee 00 00            	imull	$61133, %eax, %eax
  40162e: 89 44 24 e4                  	movl	%eax, -28(%rsp)
  401632: 8b 44 24 ec                  	movl	-20(%rsp), %eax
  401636: 69 c0 86 85 00 00            	imull	$34182, %eax, %eax
  40163c: 89 44 24 ec                  	movl	%eax, -20(%rsp)
  401640: 8b 44 24 dc                  	movl	-36(%rsp), %eax
  401644: 69 c0 44 25 00 00            	imull	$9540, %eax, %eax
  40164a: 89 44 24 dc                  	movl	%eax, -36(%rsp)
  40164e: 8b 44 24 d0                  	movl	-48(%rsp), %eax
  401652: 69 c0 c6 87 00 00            	imull	$34758, %eax, %eax
  401658: 89 44 24 d0                  	movl	%eax, -48(%rsp)
  40165c: 8b 44 24 e4                  	movl	-28(%rsp), %eax
  401660: 69 c0 97 d1 00 00            	imull	$53655, %eax, %eax
  401666: 89 44 24 e4                  	movl	%eax, -28(%rsp)
  40166a: 8b 44 24 d0                  	movl	-48(%rsp), %eax
  40166e: 69 c0 ff 38 00 00            	imull	$14591, %eax, %eax
  401674: 89 44 24 d0                  	movl	%eax, -48(%rsp)
  401678: 8b 44 24 d0                  	movl	-48(%rsp), %eax
  40167c: 69 c0 ce 4e 00 00            	imull	$20174, %eax, %eax
  401682: 89 44 24 d0                  	movl	%eax, -48(%rsp)
  401686: 8b 44 24 d4                  	movl	-44(%rsp), %eax
  40168a: 69 c0 54 a2 00 00            	imull	$41556, %eax, %eax
  401690: 89 44 24 d4                  	movl	%eax, -44(%rsp)
  401694: 8b 44 24 d8                  	movl	-40(%rsp), %eax
  401698: 69 c0 46 1a 00 00            	imull	$6726, %eax, %eax
  40169e: 89 44 24 d8                  	movl	%eax, -40(%rsp)
  4016a2: 8b 44 24 f0                  	movl	-16(%rsp), %eax
  4016a6: 69 c0 28 d8 00 00            	imull	$55336, %eax, %eax
  4016ac: 89 44 24 f0                  	movl	%eax, -16(%rsp)
  4016b0: 8b 44 24 f0                  	movl	-16(%rsp), %eax
  4016b4: 69 c0 9a 94 00 00            	imull	$38042, %eax, %eax
  4016ba: 89 44 24 f0                  	movl	%eax, -16(%rsp)
  4016be: 8b 44 24 e4                  	movl	-28(%rsp), %eax
  4016c2: 69 c0 89 96 00 00            	imull	$38537, %eax, %eax
  4016c8: 89 44 24 e4                  	movl	%eax, -28(%rsp)
  4016cc: 8b 44 24 e4                  	movl	-28(%rsp), %eax
  4016d0: 69 c0 28 10 00 00            	imull	$4136, %eax, %eax
  4016d6: 89 44 24 e4                  	movl	%eax, -28(%rsp)
  4016da: 8b 44 24 ec                  	movl	-20(%rsp), %eax
  4016de: 69 c0 96 df 00 00            	imull	$57238, %eax, %eax
  4016e4: 89 44 24 ec                  	movl	%eax, -20(%rsp)
  4016e8: 8b 44 24 ec                  	movl	-20(%rsp), %eax
  4016ec: 69 c0 86 20 00 00            	imull	$8326, %eax, %eax
  4016f2: 89 44 24 ec                  	movl	%eax, -20(%rsp)
  4016f6: 8b 44 24 ec                  	movl	-20(%rsp), %eax
  4016fa: 69 c0 3c e1 00 00            	imull	$57660, %eax, %eax
  401700: 89 44 24 ec                  	movl	%eax, -20(%rsp)
  401704: 8b 44 24 f0                  	movl	-16(%rsp), %eax
  401708: 69 c0 0a e5 00 00            	imull	$58634, %eax, %eax
  40170e: 89 44 24 f0                  	movl	%eax, -16(%rsp)
  401712: 8b 44 24 d0                  	movl	-48(%rsp), %eax
  401716: 69 c0 7f d8 00 00            	imull	$55423, %eax, %eax
  40171c: 89 44 24 d0                  	movl	%eax, -48(%rsp)
  401720: 8b 44 24 dc                  	movl	-36(%rsp), %eax
  401724: 69 c0 39 79 00 00            	imull	$31033, %eax, %eax
  40172a: 89 44 24 dc                  	movl	%eax, -36(%rsp)
  40172e: 8b 44 24 d8                  	movl	-40(%rsp), %eax
  401732: 69 c0 3a f3 00 00            	imull	$62266, %eax, %eax
  401738: 89 44 24 d8                  	movl	%eax, -40(%rsp)
  40173c: 8b 44 24 d4                  	movl	-44(%rsp), %eax
  401740: 69 c0 d0 4e 00 00            	imull	$20176, %eax, %eax
  401746: 89 44 24 d4                  	movl	%eax, -44(%rsp)
  40174a: 8b 44 24 e8                  	movl	-24(%rsp), %eax
  40174e: 69 c0 1f a3 00 00            	imull	$41759, %eax, %eax
  401754: 89 44 24 e8                  	movl	%eax, -24(%rsp)
  401758: 8b 44 24 ec                  	movl	-20(%rsp), %eax
  40175c: 69 c0 c3 56 00 00            	imull	$22211, %eax, %eax
  401762: 89 44 24 ec                  	movl	%eax, -20(%rsp)
  401766: 8b 44 24 f4                  	movl	-12(%rsp), %eax
  40176a: 69 c0 e9 00 00 00            	imull	$233, %eax, %eax
  401770: 89 44 24 f4                  	movl	%eax, -12(%rsp)
  401774: 8b 44 24 ec                  	movl	-20(%rsp), %eax
  401778: 69 c0 aa f8 00 00            	imull	$63658, %eax, %eax
  40177e: 89 44 24 ec                  	movl	%eax, -20(%rsp)
  401782: ba 00 00 00 00               	movl	$0, %edx
  401787: b8 00 00 00 00               	movl	$0, %eax
  40178c: eb 0b                        	jmp	11 <scramble+0x4f6>
  40178e: 89 d1                        	movl	%edx, %ecx
  401790: 8b 4c 8c d0                  	movl	-48(%rsp,%rcx,4), %ecx
  401794: 01 c8                        	addl	%ecx, %eax
  401796: 83 c2 01                     	addl	$1, %edx
  401799: 83 fa 09                     	cmpl	$9, %edx
  40179c: 76 f0                        	jbe	-16 <scramble+0x4eb>
  40179e: f3 c3                        	rep		retq

00000000004017a0 getbuf:
  4017a0: 48 83 ec 18                  	subq	$24, %rsp
  4017a4: 48 89 e7                     	movq	%rsp, %rdi
  4017a7: e8 2e 02 00 00               	callq	558 <Gets>
  4017ac: b8 01 00 00 00               	movl	$1, %eax
  4017b1: 48 83 c4 18                  	addq	$24, %rsp
  4017b5: c3                           	retq

00000000004017b6 touch1:
  4017b6: 48 83 ec 08                  	subq	$8, %rsp
  4017ba: c7 05 38 2d 20 00 01 00 00 00	movl	$1, 2108728(%rip)
  4017c4: bf 16 30 40 00               	movl	$4206614, %edi
  4017c9: e8 82 f4 ff ff               	callq	-2942 <puts@plt>
  4017ce: bf 01 00 00 00               	movl	$1, %edi
  4017d3: e8 f1 03 00 00               	callq	1009 <validate>
  4017d8: bf 00 00 00 00               	movl	$0, %edi
  4017dd: e8 0e f6 ff ff               	callq	-2546 <exit@plt>

00000000004017e2 touch2:
  4017e2: 48 83 ec 08                  	subq	$8, %rsp
  4017e6: 89 fe                        	movl	%edi, %esi
  4017e8: c7 05 0a 2d 20 00 02 00 00 00	movl	$2, 2108682(%rip)
  4017f2: 3b 3d 0c 2d 20 00            	cmpl	2108684(%rip), %edi
  4017f8: 75 1b                        	jne	27 <touch2+0x33>
  4017fa: bf 38 30 40 00               	movl	$4206648, %edi
  4017ff: b8 00 00 00 00               	movl	$0, %eax
  401804: e8 77 f4 ff ff               	callq	-2953 <printf@plt>
  401809: bf 02 00 00 00               	movl	$2, %edi
  40180e: e8 b6 03 00 00               	callq	950 <validate>
  401813: eb 19                        	jmp	25 <touch2+0x4c>
  401815: bf 60 30 40 00               	movl	$4206688, %edi
  40181a: b8 00 00 00 00               	movl	$0, %eax
  40181f: e8 5c f4 ff ff               	callq	-2980 <printf@plt>
  401824: bf 02 00 00 00               	movl	$2, %edi
  401829: e8 4d 04 00 00               	callq	1101 <fail>
  40182e: bf 00 00 00 00               	movl	$0, %edi
  401833: e8 b8 f5 ff ff               	callq	-2632 <exit@plt>

0000000000401838 hexmatch:
  401838: 41 54                        	pushq	%r12
  40183a: 55                           	pushq	%rbp
  40183b: 53                           	pushq	%rbx
  40183c: 48 83 ec 70                  	subq	$112, %rsp
  401840: 41 89 fc                     	movl	%edi, %r12d
  401843: 48 89 f5                     	movq	%rsi, %rbp
  401846: e8 05 f5 ff ff               	callq	-2811 <random@plt>
  40184b: 48 89 c1                     	movq	%rax, %rcx
  40184e: 48 ba 0b d7 a3 70 3d 0a d7 a3	movabsq	$-6640827866535438581, %rdx
  401858: 48 f7 ea                     	imulq	%rdx
  40185b: 48 8d 04 0a                  	leaq	(%rdx,%rcx), %rax
  40185f: 48 c1 f8 06                  	sarq	$6, %rax
  401863: 48 89 ce                     	movq	%rcx, %rsi
  401866: 48 c1 fe 3f                  	sarq	$63, %rsi
  40186a: 48 29 f0                     	subq	%rsi, %rax
  40186d: 48 8d 04 80                  	leaq	(%rax,%rax,4), %rax
  401871: 48 8d 04 80                  	leaq	(%rax,%rax,4), %rax
  401875: 48 c1 e0 02                  	shlq	$2, %rax
  401879: 48 29 c1                     	subq	%rax, %rcx
  40187c: 48 8d 1c 0c                  	leaq	(%rsp,%rcx), %rbx
  401880: 44 89 e2                     	movl	%r12d, %edx
  401883: be 33 30 40 00               	movl	$4206643, %esi
  401888: 48 89 df                     	movq	%rbx, %rdi
  40188b: b8 00 00 00 00               	movl	$0, %eax
  401890: e8 4b f5 ff ff               	callq	-2741 <sprintf@plt>
  401895: ba 09 00 00 00               	movl	$9, %edx
  40189a: 48 89 de                     	movq	%rbx, %rsi
  40189d: 48 89 ef                     	movq	%rbp, %rdi
  4018a0: e8 8b f3 ff ff               	callq	-3189 <strncmp@plt>
  4018a5: 85 c0                        	testl	%eax, %eax
  4018a7: 0f 94 c0                     	sete	%al
  4018aa: 0f b6 c0                     	movzbl	%al, %eax
  4018ad: 48 83 c4 70                  	addq	$112, %rsp
  4018b1: 5b                           	popq	%rbx
  4018b2: 5d                           	popq	%rbp
  4018b3: 41 5c                        	popq	%r12
  4018b5: c3                           	retq

00000000004018b6 touch3:
  4018b6: 53                           	pushq	%rbx
  4018b7: 48 89 fb                     	movq	%rdi, %rbx
  4018ba: c7 05 38 2c 20 00 03 00 00 00	movl	$3, 2108472(%rip)
  4018c4: 48 89 fe                     	movq	%rdi, %rsi
  4018c7: 8b 3d 37 2c 20 00            	movl	2108471(%rip), %edi
  4018cd: e8 66 ff ff ff               	callq	-154 <hexmatch>
  4018d2: 85 c0                        	testl	%eax, %eax
  4018d4: 74 1e                        	je	30 <touch3+0x3e>
  4018d6: 48 89 de                     	movq	%rbx, %rsi
  4018d9: bf 88 30 40 00               	movl	$4206728, %edi
  4018de: b8 00 00 00 00               	movl	$0, %eax
  4018e3: e8 98 f3 ff ff               	callq	-3176 <printf@plt>
  4018e8: bf 03 00 00 00               	movl	$3, %edi
  4018ed: e8 d7 02 00 00               	callq	727 <validate>
  4018f2: eb 1c                        	jmp	28 <touch3+0x5a>
  4018f4: 48 89 de                     	movq	%rbx, %rsi
  4018f7: bf b0 30 40 00               	movl	$4206768, %edi
  4018fc: b8 00 00 00 00               	movl	$0, %eax
  401901: e8 7a f3 ff ff               	callq	-3206 <printf@plt>
  401906: bf 03 00 00 00               	movl	$3, %edi
  40190b: e8 6b 03 00 00               	callq	875 <fail>
  401910: bf 00 00 00 00               	movl	$0, %edi
  401915: e8 d6 f4 ff ff               	callq	-2858 <exit@plt>

000000000040191a test:
  40191a: 48 83 ec 08                  	subq	$8, %rsp
  40191e: b8 00 00 00 00               	movl	$0, %eax
  401923: e8 78 fe ff ff               	callq	-392 <getbuf>
  401928: 89 c6                        	movl	%eax, %esi
  40192a: bf d8 30 40 00               	movl	$4206808, %edi
  40192f: b8 00 00 00 00               	movl	$0, %eax
  401934: e8 47 f3 ff ff               	callq	-3257 <printf@plt>
  401939: 48 83 c4 08                  	addq	$8, %rsp
  40193d: c3                           	retq
  40193e: 66 90                        	nop

0000000000401940 save_char:
  401940: 8b 05 de 37 20 00            	movl	2111454(%rip), %eax
  401946: 3d ff 03 00 00               	cmpl	$1023, %eax
  40194b: 7f 49                        	jg	73 <save_char+0x56>
  40194d: 8d 14 40                     	leal	(%rax,%rax,2), %edx
  401950: 89 f9                        	movl	%edi, %ecx
  401952: c0 e9 04                     	shrb	$4, %cl
  401955: 83 e1 0f                     	andl	$15, %ecx
  401958: 0f b6 b1 00 34 40 00         	movzbl	4207616(%rcx), %esi
  40195f: 48 63 ca                     	movslq	%edx, %rcx
  401962: 40 88 b1 20 45 60 00         	movb	%sil, 6309152(%rcx)
  401969: 8d 4a 01                     	leal	1(%rdx), %ecx
  40196c: 83 e7 0f                     	andl	$15, %edi
  40196f: 0f b6 b7 00 34 40 00         	movzbl	4207616(%rdi), %esi
  401976: 48 63 c9                     	movslq	%ecx, %rcx
  401979: 40 88 b1 20 45 60 00         	movb	%sil, 6309152(%rcx)
  401980: 83 c2 02                     	addl	$2, %edx
  401983: 48 63 d2                     	movslq	%edx, %rdx
  401986: c6 82 20 45 60 00 20         	movb	$32, 6309152(%rdx)
  40198d: 83 c0 01                     	addl	$1, %eax
  401990: 89 05 8e 37 20 00            	movl	%eax, 2111374(%rip)
  401996: f3 c3                        	rep		retq

0000000000401998 save_term:
  401998: 8b 05 86 37 20 00            	movl	2111366(%rip), %eax
  40199e: 8d 04 40                     	leal	(%rax,%rax,2), %eax
  4019a1: 48 98                        	cltq
  4019a3: c6 80 20 45 60 00 00         	movb	$0, 6309152(%rax)
  4019aa: c3                           	retq

00000000004019ab check_fail:
  4019ab: 48 83 ec 08                  	subq	$8, %rsp
  4019af: 0f be 35 72 37 20 00         	movsbl	2111346(%rip), %esi
  4019b6: b9 20 45 60 00               	movl	$6309152, %ecx
  4019bb: 8b 15 37 2b 20 00            	movl	2108215(%rip), %edx
  4019c1: bf fb 30 40 00               	movl	$4206843, %edi
  4019c6: b8 00 00 00 00               	movl	$0, %eax
  4019cb: e8 b0 f2 ff ff               	callq	-3408 <printf@plt>
  4019d0: bf 01 00 00 00               	movl	$1, %edi
  4019d5: e8 16 f4 ff ff               	callq	-3050 <exit@plt>

00000000004019da Gets:
  4019da: 41 54                        	pushq	%r12
  4019dc: 55                           	pushq	%rbp
  4019dd: 53                           	pushq	%rbx
  4019de: 49 89 fc                     	movq	%rdi, %r12
  4019e1: c7 05 39 37 20 00 00 00 00 00	movl	$0, 2111289(%rip)
  4019eb: 48 89 fb                     	movq	%rdi, %rbx
  4019ee: eb 11                        	jmp	17 <Gets+0x27>
  4019f0: 48 8d 6b 01                  	leaq	1(%rbx), %rbp
  4019f4: 88 03                        	movb	%al, (%rbx)
  4019f6: 0f b6 f8                     	movzbl	%al, %edi
  4019f9: e8 42 ff ff ff               	callq	-190 <save_char>
  4019fe: 48 89 eb                     	movq	%rbp, %rbx
  401a01: 48 8b 3d e8 2a 20 00         	movq	2108136(%rip), %rdi
  401a08: e8 53 f3 ff ff               	callq	-3245 <_IO_getc@plt>
  401a0d: 83 f8 ff                     	cmpl	$-1, %eax
  401a10: 74 05                        	je	5 <Gets+0x3d>
  401a12: 83 f8 0a                     	cmpl	$10, %eax
  401a15: 75 d9                        	jne	-39 <Gets+0x16>
  401a17: c6 03 00                     	movb	$0, (%rbx)
  401a1a: b8 00 00 00 00               	movl	$0, %eax
  401a1f: e8 74 ff ff ff               	callq	-140 <save_term>
  401a24: 4c 89 e0                     	movq	%r12, %rax
  401a27: 5b                           	popq	%rbx
  401a28: 5d                           	popq	%rbp
  401a29: 41 5c                        	popq	%r12
  401a2b: c3                           	retq

0000000000401a2c notify_server:
  401a2c: 83 3d d5 2a 20 00 00         	cmpl	$0, 2108117(%rip)
  401a33: 0f 85 8e 01 00 00            	jne	398 <notify_server+0x19b>
  401a39: 53                           	pushq	%rbx
  401a3a: 48 81 ec 10 40 00 00         	subq	$16400, %rsp
  401a41: 89 fb                        	movl	%edi, %ebx
  401a43: 8b 05 db 36 20 00            	movl	2111195(%rip), %eax
  401a49: 83 c0 64                     	addl	$100, %eax
  401a4c: 3d 00 20 00 00               	cmpl	$8192, %eax
  401a51: 7e 19                        	jle	25 <notify_server+0x40>
  401a53: bf 30 32 40 00               	movl	$4207152, %edi
  401a58: b8 00 00 00 00               	movl	$0, %eax
  401a5d: e8 1e f2 ff ff               	callq	-3554 <printf@plt>
  401a62: bf 01 00 00 00               	movl	$1, %edi
  401a67: e8 84 f3 ff ff               	callq	-3196 <exit@plt>
  401a6c: 44 0f be 0d b4 36 20 00      	movsbl	2111156(%rip), %r9d
  401a74: 83 3d 2d 2a 20 00 00         	cmpl	$0, 2107949(%rip)
  401a7b: 74 09                        	je	9 <notify_server+0x5a>
  401a7d: 44 8b 05 7c 2a 20 00         	movl	2108028(%rip), %r8d
  401a84: eb 06                        	jmp	6 <notify_server+0x60>
  401a86: 41 b8 ff ff ff ff            	movl	$4294967295, %r8d
  401a8c: 85 db                        	testl	%ebx, %ebx
  401a8e: 74 07                        	je	7 <notify_server+0x6b>
  401a90: b9 11 31 40 00               	movl	$4206865, %ecx
  401a95: eb 05                        	jmp	5 <notify_server+0x70>
  401a97: b9 16 31 40 00               	movl	$4206870, %ecx
  401a9c: 48 c7 44 24 08 20 45 60 00   	movq	$6309152, 8(%rsp)
  401aa5: 89 34 24                     	movl	%esi, (%rsp)
  401aa8: 8b 15 ba 26 20 00            	movl	2107066(%rip), %edx
  401aae: be 1b 31 40 00               	movl	$4206875, %esi
  401ab3: 48 8d bc 24 10 20 00 00      	leaq	8208(%rsp), %rdi
  401abb: b8 00 00 00 00               	movl	$0, %eax
  401ac0: e8 1b f3 ff ff               	callq	-3301 <sprintf@plt>
  401ac5: 83 3d dc 29 20 00 00         	cmpl	$0, 2107868(%rip)
  401acc: 74 78                        	je	120 <notify_server+0x11a>
  401ace: 85 db                        	testl	%ebx, %ebx
  401ad0: 74 68                        	je	104 <notify_server+0x10e>
  401ad2: 4c 8d 4c 24 10               	leaq	16(%rsp), %r9
  401ad7: 41 b8 00 00 00 00            	movl	$0, %r8d
  401add: 48 8d 8c 24 10 20 00 00      	leaq	8208(%rsp), %rcx
  401ae5: 48 8b 15 84 26 20 00         	movq	2107012(%rip), %rdx
  401aec: 48 8b 35 85 26 20 00         	movq	2107013(%rip), %rsi
  401af3: 48 8b 3d 66 26 20 00         	movq	2106982(%rip), %rdi
  401afa: e8 94 0f 00 00               	callq	3988 <driver_post>
  401aff: 85 c0                        	testl	%eax, %eax
  401b01: 79 1e                        	jns	30 <notify_server+0xf5>
  401b03: 48 8d 74 24 10               	leaq	16(%rsp), %rsi
  401b08: bf 37 31 40 00               	movl	$4206903, %edi
  401b0d: b8 00 00 00 00               	movl	$0, %eax
  401b12: e8 69 f1 ff ff               	callq	-3735 <printf@plt>
  401b17: bf 01 00 00 00               	movl	$1, %edi
  401b1c: e8 cf f2 ff ff               	callq	-3377 <exit@plt>
  401b21: bf 60 32 40 00               	movl	$4207200, %edi
  401b26: e8 25 f1 ff ff               	callq	-3803 <puts@plt>
  401b2b: bf 43 31 40 00               	movl	$4206915, %edi
  401b30: e8 1b f1 ff ff               	callq	-3813 <puts@plt>
  401b35: e9 85 00 00 00               	jmp	133 <notify_server+0x193>
  401b3a: bf 4d 31 40 00               	movl	$4206925, %edi
  401b3f: e8 0c f1 ff ff               	callq	-3828 <puts@plt>
  401b44: eb 79                        	jmp	121 <notify_server+0x193>
  401b46: 85 db                        	testl	%ebx, %ebx
  401b48: 74 08                        	je	8 <notify_server+0x126>
  401b4a: be 11 31 40 00               	movl	$4206865, %esi
  401b4f: 90                           	nop
  401b50: eb 05                        	jmp	5 <notify_server+0x12b>
  401b52: be 16 31 40 00               	movl	$4206870, %esi
  401b57: bf 98 32 40 00               	movl	$4207256, %edi
  401b5c: b8 00 00 00 00               	movl	$0, %eax
  401b61: e8 1a f1 ff ff               	callq	-3814 <printf@plt>
  401b66: 48 8b 35 f3 25 20 00         	movq	2106867(%rip), %rsi
  401b6d: bf 54 31 40 00               	movl	$4206932, %edi
  401b72: b8 00 00 00 00               	movl	$0, %eax
  401b77: e8 04 f1 ff ff               	callq	-3836 <printf@plt>
  401b7c: 48 8b 35 f5 25 20 00         	movq	2106869(%rip), %rsi
  401b83: bf 61 31 40 00               	movl	$4206945, %edi
  401b88: b8 00 00 00 00               	movl	$0, %eax
  401b8d: e8 ee f0 ff ff               	callq	-3858 <printf@plt>
  401b92: 48 8b 35 d7 25 20 00         	movq	2106839(%rip), %rsi
  401b99: bf 6d 31 40 00               	movl	$4206957, %edi
  401b9e: b8 00 00 00 00               	movl	$0, %eax
  401ba3: e8 d8 f0 ff ff               	callq	-3880 <printf@plt>
  401ba8: 48 8d b4 24 10 20 00 00      	leaq	8208(%rsp), %rsi
  401bb0: bf 76 31 40 00               	movl	$4206966, %edi
  401bb5: b8 00 00 00 00               	movl	$0, %eax
  401bba: e8 c1 f0 ff ff               	callq	-3903 <printf@plt>
  401bbf: 48 81 c4 10 40 00 00         	addq	$16400, %rsp
  401bc6: 5b                           	popq	%rbx
  401bc7: f3 c3                        	rep		retq

0000000000401bc9 validate:
  401bc9: 53                           	pushq	%rbx
  401bca: 89 fb                        	movl	%edi, %ebx
  401bcc: 83 3d 35 29 20 00 00         	cmpl	$0, 2107701(%rip)
  401bd3: 74 60                        	je	96 <validate+0x6c>
  401bd5: 39 3d 21 29 20 00            	cmpl	%edi, 2107681(%rip)
  401bdb: 74 14                        	je	20 <validate+0x28>
  401bdd: bf 82 31 40 00               	movl	$4206978, %edi
  401be2: e8 69 f0 ff ff               	callq	-3991 <puts@plt>
  401be7: b8 00 00 00 00               	movl	$0, %eax
  401bec: e8 ba fd ff ff               	callq	-582 <check_fail>
  401bf1: 8b 35 01 29 20 00            	movl	2107649(%rip), %esi
  401bf7: 39 fe                        	cmpl	%edi, %esi
  401bf9: 74 1b                        	je	27 <validate+0x4d>
  401bfb: 89 fa                        	movl	%edi, %edx
  401bfd: bf c0 32 40 00               	movl	$4207296, %edi
  401c02: b8 00 00 00 00               	movl	$0, %eax
  401c07: e8 74 f0 ff ff               	callq	-3980 <printf@plt>
  401c0c: b8 00 00 00 00               	movl	$0, %eax
  401c11: e8 95 fd ff ff               	callq	-619 <check_fail>
  401c16: 0f be 35 0b 35 20 00         	movsbl	2110731(%rip), %esi
  401c1d: b9 20 45 60 00               	movl	$6309152, %ecx
  401c22: 89 fa                        	movl	%edi, %edx
  401c24: bf a0 31 40 00               	movl	$4207008, %edi
  401c29: b8 00 00 00 00               	movl	$0, %eax
  401c2e: e8 4d f0 ff ff               	callq	-4019 <printf@plt>
  401c33: eb 44                        	jmp	68 <validate+0xb0>
  401c35: 39 3d c1 28 20 00            	cmpl	%edi, 2107585(%rip)
  401c3b: 74 18                        	je	24 <validate+0x8c>
  401c3d: bf 82 31 40 00               	movl	$4206978, %edi
  401c42: e8 09 f0 ff ff               	callq	-4087 <puts@plt>
  401c47: 89 de                        	movl	%ebx, %esi
  401c49: bf 00 00 00 00               	movl	$0, %edi
  401c4e: e8 d9 fd ff ff               	callq	-551 <notify_server>
  401c53: eb 24                        	jmp	36 <validate+0xb0>
  401c55: 0f be 15 cc 34 20 00         	movsbl	2110668(%rip), %edx
  401c5c: 89 fe                        	movl	%edi, %esi
  401c5e: bf e8 32 40 00               	movl	$4207336, %edi
  401c63: b8 00 00 00 00               	movl	$0, %eax
  401c68: e8 13 f0 ff ff               	callq	-4077 <printf@plt>
  401c6d: 89 de                        	movl	%ebx, %esi
  401c6f: bf 01 00 00 00               	movl	$1, %edi
  401c74: e8 b3 fd ff ff               	callq	-589 <notify_server>
  401c79: 5b                           	popq	%rbx
  401c7a: c3                           	retq

0000000000401c7b fail:
  401c7b: 48 83 ec 08                  	subq	$8, %rsp
  401c7f: 83 3d 82 28 20 00 00         	cmpl	$0, 2107522(%rip)
  401c86: 74 0a                        	je	10 <fail+0x17>
  401c88: b8 00 00 00 00               	movl	$0, %eax
  401c8d: e8 19 fd ff ff               	callq	-743 <check_fail>
  401c92: 89 fe                        	movl	%edi, %esi
  401c94: bf 00 00 00 00               	movl	$0, %edi
  401c99: e8 8e fd ff ff               	callq	-626 <notify_server>
  401c9e: 48 83 c4 08                  	addq	$8, %rsp
  401ca2: c3                           	retq

0000000000401ca3 bushandler:
  401ca3: 48 83 ec 08                  	subq	$8, %rsp
  401ca7: 83 3d 5a 28 20 00 00         	cmpl	$0, 2107482(%rip)
  401cae: 74 14                        	je	20 <bushandler+0x21>
  401cb0: bf b5 31 40 00               	movl	$4207029, %edi
  401cb5: e8 96 ef ff ff               	callq	-4202 <puts@plt>
  401cba: b8 00 00 00 00               	movl	$0, %eax
  401cbf: e8 e7 fc ff ff               	callq	-793 <check_fail>
  401cc4: bf 20 33 40 00               	movl	$4207392, %edi
  401cc9: e8 82 ef ff ff               	callq	-4222 <puts@plt>
  401cce: bf bf 31 40 00               	movl	$4207039, %edi
  401cd3: e8 78 ef ff ff               	callq	-4232 <puts@plt>
  401cd8: be 00 00 00 00               	movl	$0, %esi
  401cdd: bf 00 00 00 00               	movl	$0, %edi
  401ce2: e8 45 fd ff ff               	callq	-699 <notify_server>
  401ce7: bf 01 00 00 00               	movl	$1, %edi
  401cec: e8 ff f0 ff ff               	callq	-3841 <exit@plt>

0000000000401cf1 seghandler:
  401cf1: 48 83 ec 08                  	subq	$8, %rsp
  401cf5: 83 3d 0c 28 20 00 00         	cmpl	$0, 2107404(%rip)
  401cfc: 74 14                        	je	20 <seghandler+0x21>
  401cfe: bf d5 31 40 00               	movl	$4207061, %edi
  401d03: e8 48 ef ff ff               	callq	-4280 <puts@plt>
  401d08: b8 00 00 00 00               	movl	$0, %eax
  401d0d: e8 99 fc ff ff               	callq	-871 <check_fail>
  401d12: bf 40 33 40 00               	movl	$4207424, %edi
  401d17: e8 34 ef ff ff               	callq	-4300 <puts@plt>
  401d1c: bf bf 31 40 00               	movl	$4207039, %edi
  401d21: e8 2a ef ff ff               	callq	-4310 <puts@plt>
  401d26: be 00 00 00 00               	movl	$0, %esi
  401d2b: bf 00 00 00 00               	movl	$0, %edi
  401d30: e8 f7 fc ff ff               	callq	-777 <notify_server>
  401d35: bf 01 00 00 00               	movl	$1, %edi
  401d3a: e8 b1 f0 ff ff               	callq	-3919 <exit@plt>

0000000000401d3f illegalhandler:
  401d3f: 48 83 ec 08                  	subq	$8, %rsp
  401d43: 83 3d be 27 20 00 00         	cmpl	$0, 2107326(%rip)
  401d4a: 74 14                        	je	20 <illegalhandler+0x21>
  401d4c: bf e8 31 40 00               	movl	$4207080, %edi
  401d51: e8 fa ee ff ff               	callq	-4358 <puts@plt>
  401d56: b8 00 00 00 00               	movl	$0, %eax
  401d5b: e8 4b fc ff ff               	callq	-949 <check_fail>
  401d60: bf 68 33 40 00               	movl	$4207464, %edi
  401d65: e8 e6 ee ff ff               	callq	-4378 <puts@plt>
  401d6a: bf bf 31 40 00               	movl	$4207039, %edi
  401d6f: e8 dc ee ff ff               	callq	-4388 <puts@plt>
  401d74: be 00 00 00 00               	movl	$0, %esi
  401d79: bf 00 00 00 00               	movl	$0, %edi
  401d7e: e8 a9 fc ff ff               	callq	-855 <notify_server>
  401d83: bf 01 00 00 00               	movl	$1, %edi
  401d88: e8 63 f0 ff ff               	callq	-3997 <exit@plt>

0000000000401d8d sigalrmhandler:
  401d8d: 48 83 ec 08                  	subq	$8, %rsp
  401d91: 83 3d 70 27 20 00 00         	cmpl	$0, 2107248(%rip)
  401d98: 74 14                        	je	20 <sigalrmhandler+0x21>
  401d9a: bf fc 31 40 00               	movl	$4207100, %edi
  401d9f: e8 ac ee ff ff               	callq	-4436 <puts@plt>
  401da4: b8 00 00 00 00               	movl	$0, %eax
  401da9: e8 fd fb ff ff               	callq	-1027 <check_fail>
  401dae: be 05 00 00 00               	movl	$5, %esi
  401db3: bf 98 33 40 00               	movl	$4207512, %edi
  401db8: b8 00 00 00 00               	movl	$0, %eax
  401dbd: e8 be ee ff ff               	callq	-4418 <printf@plt>
  401dc2: be 00 00 00 00               	movl	$0, %esi
  401dc7: bf 00 00 00 00               	movl	$0, %edi
  401dcc: e8 5b fc ff ff               	callq	-933 <notify_server>
  401dd1: bf 01 00 00 00               	movl	$1, %edi
  401dd6: e8 15 f0 ff ff               	callq	-4075 <exit@plt>

0000000000401ddb launch:
  401ddb: 55                           	pushq	%rbp
  401ddc: 48 89 e5                     	movq	%rsp, %rbp
  401ddf: 48 89 fa                     	movq	%rdi, %rdx
  401de2: 48 8d 47 1e                  	leaq	30(%rdi), %rax
  401de6: 48 83 e0 f0                  	andq	$-16, %rax
  401dea: 48 29 c4                     	subq	%rax, %rsp
  401ded: 48 8d 7c 24 0f               	leaq	15(%rsp), %rdi
  401df2: 48 83 e7 f0                  	andq	$-16, %rdi
  401df6: be f4 00 00 00               	movl	$244, %esi
  401dfb: e8 90 ee ff ff               	callq	-4464 <memset@plt>
  401e00: 48 8b 05 b9 26 20 00         	movq	2107065(%rip), %rax
  401e07: 48 39 05 e2 26 20 00         	cmpq	%rax, 2107106(%rip)
  401e0e: 75 0f                        	jne	15 <launch+0x44>
  401e10: bf 04 32 40 00               	movl	$4207108, %edi
  401e15: b8 00 00 00 00               	movl	$0, %eax
  401e1a: e8 61 ee ff ff               	callq	-4511 <printf@plt>
  401e1f: c7 05 d3 26 20 00 00 00 00 00	movl	$0, 2107091(%rip)
  401e29: b8 00 00 00 00               	movl	$0, %eax
  401e2e: e8 e7 fa ff ff               	callq	-1305 <test>
  401e33: 83 3d ce 26 20 00 00         	cmpl	$0, 2107086(%rip)
  401e3a: 74 14                        	je	20 <launch+0x75>
  401e3c: bf 11 32 40 00               	movl	$4207121, %edi
  401e41: e8 0a ee ff ff               	callq	-4598 <puts@plt>
  401e46: b8 00 00 00 00               	movl	$0, %eax
  401e4b: e8 5b fb ff ff               	callq	-1189 <check_fail>
  401e50: bf 1c 32 40 00               	movl	$4207132, %edi
  401e55: e8 f6 ed ff ff               	callq	-4618 <puts@plt>
  401e5a: c9                           	leave
  401e5b: c3                           	retq

0000000000401e5c stable_launch:
  401e5c: 53                           	pushq	%rbx
  401e5d: 48 89 3d 84 26 20 00         	movq	%rdi, 2107012(%rip)
  401e64: 41 b9 00 00 00 00            	movl	$0, %r9d
  401e6a: 41 b8 00 00 00 00            	movl	$0, %r8d
  401e70: b9 32 01 00 00               	movl	$306, %ecx
  401e75: ba 07 00 00 00               	movl	$7, %edx
  401e7a: be 00 00 10 00               	movl	$1048576, %esi
  401e7f: bf 00 60 58 55               	movl	$1431855104, %edi
  401e84: e8 e7 ed ff ff               	callq	-4633 <mmap@plt>
  401e89: 48 89 c3                     	movq	%rax, %rbx
  401e8c: 48 3d 00 60 58 55            	cmpq	$1431855104, %rax
  401e92: 74 32                        	je	50 <stable_launch+0x6a>
  401e94: be 00 00 10 00               	movl	$1048576, %esi
  401e99: 48 89 c7                     	movq	%rax, %rdi
  401e9c: e8 df ee ff ff               	callq	-4385 <munmap@plt>
  401ea1: ba 00 60 58 55               	movl	$1431855104, %edx
  401ea6: be d0 33 40 00               	movl	$4207568, %esi
  401eab: 48 8b 3d 1e 26 20 00         	movq	2106910(%rip), %rdi
  401eb2: b8 00 00 00 00               	movl	$0, %eax
  401eb7: e8 44 ee ff ff               	callq	-4540 <fprintf@plt>
  401ebc: bf 01 00 00 00               	movl	$1, %edi
  401ec1: e8 2a ef ff ff               	callq	-4310 <exit@plt>
  401ec6: 48 8d 90 f8 ff 0f 00         	leaq	1048568(%rax), %rdx
  401ecd: 48 89 15 5c 32 20 00         	movq	%rdx, 2110044(%rip)
  401ed4: 48 89 e0                     	movq	%rsp, %rax
  401ed7: 48 89 d4                     	movq	%rdx, %rsp
  401eda: 48 89 c2                     	movq	%rax, %rdx
  401edd: 48 89 15 fc 25 20 00         	movq	%rdx, 2106876(%rip)
  401ee4: 48 8b 3d fd 25 20 00         	movq	2106877(%rip), %rdi
  401eeb: e8 eb fe ff ff               	callq	-277 <launch>
  401ef0: 48 8b 05 e9 25 20 00         	movq	2106857(%rip), %rax
  401ef7: 48 89 c4                     	movq	%rax, %rsp
  401efa: be 00 00 10 00               	movl	$1048576, %esi
  401eff: 48 89 df                     	movq	%rbx, %rdi
  401f02: e8 79 ee ff ff               	callq	-4487 <munmap@plt>
  401f07: 5b                           	popq	%rbx
  401f08: c3                           	retq
  401f09: 0f 1f 80 00 00 00 00         	nopl	(%rax)

0000000000401f10 rio_readinitb:
  401f10: 89 37                        	movl	%esi, (%rdi)
  401f12: c7 47 04 00 00 00 00         	movl	$0, 4(%rdi)
  401f19: 48 8d 47 10                  	leaq	16(%rdi), %rax
  401f1d: 48 89 47 08                  	movq	%rax, 8(%rdi)
  401f21: c3                           	retq

0000000000401f22 sigalrm_handler:
  401f22: 48 83 ec 08                  	subq	$8, %rsp
  401f26: ba 00 00 00 00               	movl	$0, %edx
  401f2b: be 10 34 40 00               	movl	$4207632, %esi
  401f30: 48 8b 3d 99 25 20 00         	movq	2106777(%rip), %rdi
  401f37: b8 00 00 00 00               	movl	$0, %eax
  401f3c: e8 bf ed ff ff               	callq	-4673 <fprintf@plt>
  401f41: bf 01 00 00 00               	movl	$1, %edi
  401f46: e8 a5 ee ff ff               	callq	-4443 <exit@plt>

0000000000401f4b urlencode:
  401f4b: 41 54                        	pushq	%r12
  401f4d: 55                           	pushq	%rbp
  401f4e: 53                           	pushq	%rbx
  401f4f: 48 83 ec 10                  	subq	$16, %rsp
  401f53: 48 89 fb                     	movq	%rdi, %rbx
  401f56: 48 89 f5                     	movq	%rsi, %rbp
  401f59: b8 00 00 00 00               	movl	$0, %eax
  401f5e: 48 c7 c1 ff ff ff ff         	movq	$-1, %rcx
  401f65: f2 ae                        	repne		scasb	%es:(%rdi), %al
  401f67: 48 f7 d1                     	notq	%rcx
  401f6a: 8d 41 ff                     	leal	-1(%rcx), %eax
  401f6d: e9 93 00 00 00               	jmp	147 <urlencode+0xba>
  401f72: 0f b6 13                     	movzbl	(%rbx), %edx
  401f75: 80 fa 2a                     	cmpb	$42, %dl
  401f78: 0f 94 c1                     	sete	%cl
  401f7b: 80 fa 2d                     	cmpb	$45, %dl
  401f7e: 0f 94 c0                     	sete	%al
  401f81: 08 c1                        	orb	%al, %cl
  401f83: 75 1f                        	jne	31 <urlencode+0x59>
  401f85: 80 fa 2e                     	cmpb	$46, %dl
  401f88: 74 1a                        	je	26 <urlencode+0x59>
  401f8a: 80 fa 5f                     	cmpb	$95, %dl
  401f8d: 74 15                        	je	21 <urlencode+0x59>
  401f8f: 8d 42 d0                     	leal	-48(%rdx), %eax
  401f92: 3c 09                        	cmpb	$9, %al
  401f94: 76 0e                        	jbe	14 <urlencode+0x59>
  401f96: 8d 42 bf                     	leal	-65(%rdx), %eax
  401f99: 3c 19                        	cmpb	$25, %al
  401f9b: 76 07                        	jbe	7 <urlencode+0x59>
  401f9d: 8d 42 9f                     	leal	-97(%rdx), %eax
  401fa0: 3c 19                        	cmpb	$25, %al
  401fa2: 77 09                        	ja	9 <urlencode+0x62>
  401fa4: 88 55 00                     	movb	%dl, (%rbp)
  401fa7: 48 8d 6d 01                  	leaq	1(%rbp), %rbp
  401fab: eb 51                        	jmp	81 <urlencode+0xb3>
  401fad: 80 fa 20                     	cmpb	$32, %dl
  401fb0: 75 0a                        	jne	10 <urlencode+0x71>
  401fb2: c6 45 00 2b                  	movb	$43, (%rbp)
  401fb6: 48 8d 6d 01                  	leaq	1(%rbp), %rbp
  401fba: eb 42                        	jmp	66 <urlencode+0xb3>
  401fbc: 8d 42 e0                     	leal	-32(%rdx), %eax
  401fbf: 3c 5f                        	cmpb	$95, %al
  401fc1: 0f 96 c1                     	setbe	%cl
  401fc4: 80 fa 09                     	cmpb	$9, %dl
  401fc7: 0f 94 c0                     	sete	%al
  401fca: 08 c1                        	orb	%al, %cl
  401fcc: 74 45                        	je	69 <urlencode+0xc8>
  401fce: 0f b6 d2                     	movzbl	%dl, %edx
  401fd1: be a8 34 40 00               	movl	$4207784, %esi
  401fd6: 48 89 e7                     	movq	%rsp, %rdi
  401fd9: b8 00 00 00 00               	movl	$0, %eax
  401fde: e8 fd ed ff ff               	callq	-4611 <sprintf@plt>
  401fe3: 0f b6 04 24                  	movzbl	(%rsp), %eax
  401fe7: 88 45 00                     	movb	%al, (%rbp)
  401fea: 0f b6 44 24 01               	movzbl	1(%rsp), %eax
  401fef: 88 45 01                     	movb	%al, 1(%rbp)
  401ff2: 0f b6 44 24 02               	movzbl	2(%rsp), %eax
  401ff7: 88 45 02                     	movb	%al, 2(%rbp)
  401ffa: 48 8d 6d 03                  	leaq	3(%rbp), %rbp
  401ffe: 48 83 c3 01                  	addq	$1, %rbx
  402002: 44 89 e0                     	movl	%r12d, %eax
  402005: 44 8d 60 ff                  	leal	-1(%rax), %r12d
  402009: 85 c0                        	testl	%eax, %eax
  40200b: 0f 85 61 ff ff ff            	jne	-159 <urlencode+0x27>
  402011: eb 05                        	jmp	5 <urlencode+0xcd>
  402013: b8 ff ff ff ff               	movl	$4294967295, %eax
  402018: 48 83 c4 10                  	addq	$16, %rsp
  40201c: 5b                           	popq	%rbx
  40201d: 5d                           	popq	%rbp
  40201e: 41 5c                        	popq	%r12
  402020: c3                           	retq

0000000000402021 rio_writen:
  402021: 41 55                        	pushq	%r13
  402023: 41 54                        	pushq	%r12
  402025: 55                           	pushq	%rbp
  402026: 53                           	pushq	%rbx
  402027: 48 83 ec 08                  	subq	$8, %rsp
  40202b: 41 89 fc                     	movl	%edi, %r12d
  40202e: 48 89 f5                     	movq	%rsi, %rbp
  402031: 49 89 d5                     	movq	%rdx, %r13
  402034: 48 89 d3                     	movq	%rdx, %rbx
  402037: eb 28                        	jmp	40 <rio_writen+0x40>
  402039: 48 89 da                     	movq	%rbx, %rdx
  40203c: 48 89 ee                     	movq	%rbp, %rsi
  40203f: 44 89 e7                     	movl	%r12d, %edi
  402042: e8 19 ec ff ff               	callq	-5095 <write@plt>
  402047: 48 85 c0                     	testq	%rax, %rax
  40204a: 7f 0f                        	jg	15 <rio_writen+0x3a>
  40204c: e8 bf eb ff ff               	callq	-5185 <__errno_location@plt>
  402051: 83 38 04                     	cmpl	$4, (%rax)
  402054: 75 15                        	jne	21 <rio_writen+0x4a>
  402056: b8 00 00 00 00               	movl	$0, %eax
  40205b: 48 29 c3                     	subq	%rax, %rbx
  40205e: 48 01 c5                     	addq	%rax, %rbp
  402061: 48 85 db                     	testq	%rbx, %rbx
  402064: 75 d3                        	jne	-45 <rio_writen+0x18>
  402066: 4c 89 e8                     	movq	%r13, %rax
  402069: eb 07                        	jmp	7 <rio_writen+0x51>
  40206b: 48 c7 c0 ff ff ff ff         	movq	$-1, %rax
  402072: 48 83 c4 08                  	addq	$8, %rsp
  402076: 5b                           	popq	%rbx
  402077: 5d                           	popq	%rbp
  402078: 41 5c                        	popq	%r12
  40207a: 41 5d                        	popq	%r13
  40207c: c3                           	retq

000000000040207d rio_read:
  40207d: 41 56                        	pushq	%r14
  40207f: 41 55                        	pushq	%r13
  402081: 41 54                        	pushq	%r12
  402083: 55                           	pushq	%rbp
  402084: 53                           	pushq	%rbx
  402085: 48 89 fb                     	movq	%rdi, %rbx
  402088: 49 89 f6                     	movq	%rsi, %r14
  40208b: 49 89 d5                     	movq	%rdx, %r13
  40208e: 4c 8d 67 10                  	leaq	16(%rdi), %r12
  402092: eb 2a                        	jmp	42 <rio_read+0x41>
  402094: ba 00 20 00 00               	movl	$8192, %edx
  402099: 4c 89 e6                     	movq	%r12, %rsi
  40209c: 8b 3b                        	movl	(%rbx), %edi
  40209e: e8 1d ec ff ff               	callq	-5091 <read@plt>
  4020a3: 89 43 04                     	movl	%eax, 4(%rbx)
  4020a6: 85 c0                        	testl	%eax, %eax
  4020a8: 79 0c                        	jns	12 <rio_read+0x39>
  4020aa: e8 61 eb ff ff               	callq	-5279 <__errno_location@plt>
  4020af: 83 38 04                     	cmpl	$4, (%rax)
  4020b2: 74 0a                        	je	10 <rio_read+0x41>
  4020b4: eb 37                        	jmp	55 <rio_read+0x70>
  4020b6: 85 c0                        	testl	%eax, %eax
  4020b8: 74 3c                        	je	60 <rio_read+0x79>
  4020ba: 4c 89 63 08                  	movq	%r12, 8(%rbx)
  4020be: 8b 6b 04                     	movl	4(%rbx), %ebp
  4020c1: 85 ed                        	testl	%ebp, %ebp
  4020c3: 7e cf                        	jle	-49 <rio_read+0x17>
  4020c5: 89 e8                        	movl	%ebp, %eax
  4020c7: 4c 39 e8                     	cmpq	%r13, %rax
  4020ca: 72 03                        	jb	3 <rio_read+0x52>
  4020cc: 44 89 ed                     	movl	%r13d, %ebp
  4020cf: 4c 63 e5                     	movslq	%ebp, %r12
  4020d2: 48 8b 73 08                  	movq	8(%rbx), %rsi
  4020d6: 4c 89 e2                     	movq	%r12, %rdx
  4020d9: 4c 89 f7                     	movq	%r14, %rdi
  4020dc: e8 4f ec ff ff               	callq	-5041 <memcpy@plt>
  4020e1: 4c 01 63 08                  	addq	%r12, 8(%rbx)
  4020e5: 29 6b 04                     	subl	%ebp, 4(%rbx)
  4020e8: 4c 89 e0                     	movq	%r12, %rax
  4020eb: eb 0e                        	jmp	14 <rio_read+0x7e>
  4020ed: 48 c7 c0 ff ff ff ff         	movq	$-1, %rax
  4020f4: eb 05                        	jmp	5 <rio_read+0x7e>
  4020f6: b8 00 00 00 00               	movl	$0, %eax
  4020fb: 5b                           	popq	%rbx
  4020fc: 5d                           	popq	%rbp
  4020fd: 41 5c                        	popq	%r12
  4020ff: 41 5d                        	popq	%r13
  402101: 41 5e                        	popq	%r14
  402103: c3                           	retq

0000000000402104 rio_readlineb:
  402104: 41 55                        	pushq	%r13
  402106: 41 54                        	pushq	%r12
  402108: 55                           	pushq	%rbp
  402109: 53                           	pushq	%rbx
  40210a: 48 83 ec 18                  	subq	$24, %rsp
  40210e: 49 89 fd                     	movq	%rdi, %r13
  402111: 48 89 f5                     	movq	%rsi, %rbp
  402114: 49 89 d4                     	movq	%rdx, %r12
  402117: bb 01 00 00 00               	movl	$1, %ebx
  40211c: eb 3d                        	jmp	61 <rio_readlineb+0x57>
  40211e: ba 01 00 00 00               	movl	$1, %edx
  402123: 48 8d 74 24 0f               	leaq	15(%rsp), %rsi
  402128: 4c 89 ef                     	movq	%r13, %rdi
  40212b: e8 4d ff ff ff               	callq	-179 <rio_read>
  402130: 83 f8 01                     	cmpl	$1, %eax
  402133: 75 12                        	jne	18 <rio_readlineb+0x43>
  402135: 48 8d 55 01                  	leaq	1(%rbp), %rdx
  402139: 0f b6 44 24 0f               	movzbl	15(%rsp), %eax
  40213e: 88 45 00                     	movb	%al, (%rbp)
  402141: 3c 0a                        	cmpb	$10, %al
  402143: 75 0f                        	jne	15 <rio_readlineb+0x50>
  402145: eb 1b                        	jmp	27 <rio_readlineb+0x5e>
  402147: 85 c0                        	testl	%eax, %eax
  402149: 75 23                        	jne	35 <rio_readlineb+0x6a>
  40214b: 48 83 fb 01                  	cmpq	$1, %rbx
  40214f: 90                           	nop
  402150: 75 13                        	jne	19 <rio_readlineb+0x61>
  402152: eb 23                        	jmp	35 <rio_readlineb+0x73>
  402154: 48 83 c3 01                  	addq	$1, %rbx
  402158: 48 89 d5                     	movq	%rdx, %rbp
  40215b: 4c 39 e3                     	cmpq	%r12, %rbx
  40215e: 72 be                        	jb	-66 <rio_readlineb+0x1a>
  402160: eb 03                        	jmp	3 <rio_readlineb+0x61>
  402162: 48 89 d5                     	movq	%rdx, %rbp
  402165: c6 45 00 00                  	movb	$0, (%rbp)
  402169: 48 89 d8                     	movq	%rbx, %rax
  40216c: eb 0e                        	jmp	14 <rio_readlineb+0x78>
  40216e: 48 c7 c0 ff ff ff ff         	movq	$-1, %rax
  402175: eb 05                        	jmp	5 <rio_readlineb+0x78>
  402177: b8 00 00 00 00               	movl	$0, %eax
  40217c: 48 83 c4 18                  	addq	$24, %rsp
  402180: 5b                           	popq	%rbx
  402181: 5d                           	popq	%rbp
  402182: 41 5c                        	popq	%r12
  402184: 41 5d                        	popq	%r13
  402186: c3                           	retq

0000000000402187 submitr:
  402187: 41 57                        	pushq	%r15
  402189: 41 56                        	pushq	%r14
  40218b: 41 55                        	pushq	%r13
  40218d: 41 54                        	pushq	%r12
  40218f: 55                           	pushq	%rbp
  402190: 53                           	pushq	%rbx
  402191: 48 81 ec 48 a0 00 00         	subq	$41032, %rsp
  402198: 49 89 fc                     	movq	%rdi, %r12
  40219b: 89 74 24 04                  	movl	%esi, 4(%rsp)
  40219f: 49 89 d7                     	movq	%rdx, %r15
  4021a2: 49 89 ce                     	movq	%rcx, %r14
  4021a5: 4c 89 44 24 08               	movq	%r8, 8(%rsp)
  4021aa: 4d 89 cd                     	movq	%r9, %r13
  4021ad: 48 8b 9c 24 80 a0 00 00      	movq	41088(%rsp), %rbx
  4021b5: c7 84 24 1c 20 00 00 00 00 00 00     	movl	$0, 8220(%rsp)
  4021c0: ba 00 00 00 00               	movl	$0, %edx
  4021c5: be 01 00 00 00               	movl	$1, %esi
  4021ca: bf 02 00 00 00               	movl	$2, %edi
  4021cf: e8 3c ec ff ff               	callq	-5060 <socket@plt>
  4021d4: 89 c5                        	movl	%eax, %ebp
  4021d6: 85 c0                        	testl	%eax, %eax
  4021d8: 79 4e                        	jns	78 <submitr+0xa1>
  4021da: 48 b8 45 72 72 6f 72 3a 20 43	movabsq	$4836930262966366789, %rax
  4021e4: 48 89 03                     	movq	%rax, (%rbx)
  4021e7: 48 b8 6c 69 65 6e 74 20 75 6e	movabsq	$7959303600887654764, %rax
  4021f1: 48 89 43 08                  	movq	%rax, 8(%rbx)
  4021f5: 48 b8 61 62 6c 65 20 74 6f 20	movabsq	$2337214414117954145, %rax
  4021ff: 48 89 43 10                  	movq	%rax, 16(%rbx)
  402203: 48 b8 63 72 65 61 74 65 20 73	movabsq	$8295742064141103715, %rax
  40220d: 48 89 43 18                  	movq	%rax, 24(%rbx)
  402211: c7 43 20 6f 63 6b 65         	movl	$1701536623, 32(%rbx)
  402218: 66 c7 43 24 74 00            	movw	$116, 36(%rbx)
  40221e: b8 ff ff ff ff               	movl	$4294967295, %eax
  402223: e9 68 06 00 00               	jmp	1640 <submitr+0x709>
  402228: 4c 89 e7                     	movq	%r12, %rdi
  40222b: e8 c0 ea ff ff               	callq	-5440 <gethostbyname@plt>
  402230: 48 85 c0                     	testq	%rax, %rax
  402233: 75 67                        	jne	103 <submitr+0x115>
  402235: 48 b8 45 72 72 6f 72 3a 20 44	movabsq	$4908987857004294725, %rax
  40223f: 48 89 03                     	movq	%rax, (%rbx)
  402242: 48 b8 4e 53 20 69 73 20 75 6e	movabsq	$7959303596504273742, %rax
  40224c: 48 89 43 08                  	movq	%rax, 8(%rbx)
  402250: 48 b8 61 62 6c 65 20 74 6f 20	movabsq	$2337214414117954145, %rax
  40225a: 48 89 43 10                  	movq	%rax, 16(%rbx)
  40225e: 48 b8 72 65 73 6f 6c 76 65 20	movabsq	$2334402189959849330, %rax
  402268: 48 89 43 18                  	movq	%rax, 24(%rbx)
  40226c: 48 b8 73 65 72 76 65 72 20 61	movabsq	$6998719601038222707, %rax
  402276: 48 89 43 20                  	movq	%rax, 32(%rbx)
  40227a: c7 43 28 64 64 72 65         	movl	$1701995620, 40(%rbx)
  402281: 66 c7 43 2c 73 73            	movw	$29555, 44(%rbx)
  402287: c6 43 2e 00                  	movb	$0, 46(%rbx)
  40228b: 89 ef                        	movl	%ebp, %edi
  40228d: e8 1e ea ff ff               	callq	-5602 <close@plt>
  402292: b8 ff ff ff ff               	movl	$4294967295, %eax
  402297: e9 f4 05 00 00               	jmp	1524 <submitr+0x709>
  40229c: 48 c7 84 24 30 a0 00 00 00 00 00 00  	movq	$0, 41008(%rsp)
  4022a8: 48 c7 84 24 38 a0 00 00 00 00 00 00  	movq	$0, 41016(%rsp)
  4022b4: 66 c7 84 24 30 a0 00 00 02 00	movw	$2, 41008(%rsp)
  4022be: 48 8b 48 18                  	movq	24(%rax), %rcx
  4022c2: 48 63 50 14                  	movslq	20(%rax), %rdx
  4022c6: 48 8d b4 24 34 a0 00 00      	leaq	41012(%rsp), %rsi
  4022ce: 48 8b 39                     	movq	(%rcx), %rdi
  4022d1: e8 ba ea ff ff               	callq	-5446 <bcopy@plt>
  4022d6: 0f b7 44 24 04               	movzwl	4(%rsp), %eax
  4022db: 66 c1 c8 08                  	rorw	$8, %ax
  4022df: 66 89 84 24 32 a0 00 00      	movw	%ax, 41010(%rsp)
  4022e7: ba 10 00 00 00               	movl	$16, %edx
  4022ec: 48 8d b4 24 30 a0 00 00      	leaq	41008(%rsp), %rsi
  4022f4: 89 ef                        	movl	%ebp, %edi
  4022f6: e8 05 eb ff ff               	callq	-5371 <connect@plt>
  4022fb: 85 c0                        	testl	%eax, %eax
  4022fd: 79 59                        	jns	89 <submitr+0x1d1>
  4022ff: 48 b8 45 72 72 6f 72 3a 20 55	movabsq	$6133966955649069637, %rax
  402309: 48 89 03                     	movq	%rax, (%rbx)
  40230c: 48 b8 6e 61 62 6c 65 20 74 6f	movabsq	$8031079655490609518, %rax
  402316: 48 89 43 08                  	movq	%rax, 8(%rbx)
  40231a: 48 b8 20 63 6f 6e 6e 65 63 74	movabsq	$8386658456067597088, %rax
  402324: 48 89 43 10                  	movq	%rax, 16(%rbx)
  402328: 48 b8 20 74 6f 20 74 68 65 20	movabsq	$2334386829831140384, %rax
  402332: 48 89 43 18                  	movq	%rax, 24(%rbx)
  402336: c7 43 20 73 65 72 76         	movl	$1987208563, 32(%rbx)
  40233d: 66 c7 43 24 65 72            	movw	$29285, 36(%rbx)
  402343: c6 43 26 00                  	movb	$0, 38(%rbx)
  402347: 89 ef                        	movl	%ebp, %edi
  402349: e8 62 e9 ff ff               	callq	-5790 <close@plt>
  40234e: b8 ff ff ff ff               	movl	$4294967295, %eax
  402353: e9 38 05 00 00               	jmp	1336 <submitr+0x709>
  402358: 48 c7 c2 ff ff ff ff         	movq	$-1, %rdx
  40235f: 4c 89 ef                     	movq	%r13, %rdi
  402362: b8 00 00 00 00               	movl	$0, %eax
  402367: 48 89 d1                     	movq	%rdx, %rcx
  40236a: f2 ae                        	repne		scasb	%es:(%rdi), %al
  40236c: 48 f7 d1                     	notq	%rcx
  40236f: 48 89 ce                     	movq	%rcx, %rsi
  402372: 4c 89 ff                     	movq	%r15, %rdi
  402375: 48 89 d1                     	movq	%rdx, %rcx
  402378: f2 ae                        	repne		scasb	%es:(%rdi), %al
  40237a: 48 f7 d1                     	notq	%rcx
  40237d: 49 89 c8                     	movq	%rcx, %r8
  402380: 4c 89 f7                     	movq	%r14, %rdi
  402383: 48 89 d1                     	movq	%rdx, %rcx
  402386: f2 ae                        	repne		scasb	%es:(%rdi), %al
  402388: 49 29 c8                     	subq	%rcx, %r8
  40238b: 48 8b 7c 24 08               	movq	8(%rsp), %rdi
  402390: 48 89 d1                     	movq	%rdx, %rcx
  402393: f2 ae                        	repne		scasb	%es:(%rdi), %al
  402395: 49 29 c8                     	subq	%rcx, %r8
  402398: 48 8d 44 76 fd               	leaq	-3(%rsi,%rsi,2), %rax
  40239d: 49 8d 44 00 7b               	leaq	123(%r8,%rax), %rax
  4023a2: 48 3d 00 20 00 00            	cmpq	$8192, %rax
  4023a8: 76 72                        	jbe	114 <submitr+0x295>
  4023aa: 48 b8 45 72 72 6f 72 3a 20 52	movabsq	$5917794173535285829, %rax
  4023b4: 48 89 03                     	movq	%rax, (%rbx)
  4023b7: 48 b8 65 73 75 6c 74 20 73 74	movabsq	$8391086215129297765, %rax
  4023c1: 48 89 43 08                  	movq	%rax, 8(%rbx)
  4023c5: 48 b8 72 69 6e 67 20 74 6f 6f	movabsq	$8029764343147948402, %rax
  4023cf: 48 89 43 10                  	movq	%rax, 16(%rbx)
  4023d3: 48 b8 20 6c 61 72 67 65 2e 20	movabsq	$2318902353117408288, %rax
  4023dd: 48 89 43 18                  	movq	%rax, 24(%rbx)
  4023e1: 48 b8 49 6e 63 72 65 61 73 65	movabsq	$7310293708491157065, %rax
  4023eb: 48 89 43 20                  	movq	%rax, 32(%rbx)
  4023ef: 48 b8 20 53 55 42 4d 49 54 52	movabsq	$5932447205327983392, %rax
  4023f9: 48 89 43 28                  	movq	%rax, 40(%rbx)
  4023fd: 48 b8 5f 4d 41 58 42 55 46 00	movabsq	$19796991806623071, %rax
  402407: 48 89 43 30                  	movq	%rax, 48(%rbx)
  40240b: 89 ef                        	movl	%ebp, %edi
  40240d: e8 9e e8 ff ff               	callq	-5986 <close@plt>
  402412: b8 ff ff ff ff               	movl	$4294967295, %eax
  402417: e9 74 04 00 00               	jmp	1140 <submitr+0x709>
  40241c: 48 8d b4 24 20 40 00 00      	leaq	16416(%rsp), %rsi
  402424: b9 00 04 00 00               	movl	$1024, %ecx
  402429: b8 00 00 00 00               	movl	$0, %eax
  40242e: 48 89 f7                     	movq	%rsi, %rdi
  402431: f3 48 ab                     	rep		stosq	%rax, %es:(%rdi)
  402434: 4c 89 ef                     	movq	%r13, %rdi
  402437: e8 0f fb ff ff               	callq	-1265 <urlencode>
  40243c: 85 c0                        	testl	%eax, %eax
  40243e: 0f 89 8a 00 00 00            	jns	138 <submitr+0x347>
  402444: 48 b8 45 72 72 6f 72 3a 20 52	movabsq	$5917794173535285829, %rax
  40244e: 48 89 03                     	movq	%rax, (%rbx)
  402451: 48 b8 65 73 75 6c 74 20 73 74	movabsq	$8391086215129297765, %rax
  40245b: 48 89 43 08                  	movq	%rax, 8(%rbx)
  40245f: 48 b8 72 69 6e 67 20 63 6f 6e	movabsq	$7957688057412348274, %rax
  402469: 48 89 43 10                  	movq	%rax, 16(%rbx)
  40246d: 48 b8 74 61 69 6e 73 20 61 6e	movabsq	$7953674097058734452, %rax
  402477: 48 89 43 18                  	movq	%rax, 24(%rbx)
  40247b: 48 b8 20 69 6c 6c 65 67 61 6c	movabsq	$7809636914145552672, %rax
  402485: 48 89 43 20                  	movq	%rax, 32(%rbx)
  402489: 48 b8 20 6f 72 20 75 6e 70 72	movabsq	$8246212367049977632, %rax
  402493: 48 89 43 28                  	movq	%rax, 40(%rbx)
  402497: 48 b8 69 6e 74 61 62 6c 65 20	movabsq	$2334391151659085417, %rax
  4024a1: 48 89 43 30                  	movq	%rax, 48(%rbx)
  4024a5: 48 b8 63 68 61 72 61 63 74 65	movabsq	$7310577365311121507, %rax
  4024af: 48 89 43 38                  	movq	%rax, 56(%rbx)
  4024b3: 66 c7 43 40 72 2e            	movw	$11890, 64(%rbx)
  4024b9: c6 43 42 00                  	movb	$0, 66(%rbx)
  4024bd: 89 ef                        	movl	%ebp, %edi
  4024bf: e8 ec e7 ff ff               	callq	-6164 <close@plt>
  4024c4: b8 ff ff ff ff               	movl	$4294967295, %eax
  4024c9: e9 c2 03 00 00               	jmp	962 <submitr+0x709>
  4024ce: 4d 89 e1                     	movq	%r12, %r9
  4024d1: 4c 8d 84 24 20 40 00 00      	leaq	16416(%rsp), %r8
  4024d9: 4c 89 f9                     	movq	%r15, %rcx
  4024dc: 4c 89 f2                     	movq	%r14, %rdx
  4024df: be 38 34 40 00               	movl	$4207672, %esi
  4024e4: 48 8d bc 24 20 60 00 00      	leaq	24608(%rsp), %rdi
  4024ec: b8 00 00 00 00               	movl	$0, %eax
  4024f1: e8 ea e8 ff ff               	callq	-5910 <sprintf@plt>
  4024f6: 48 8d bc 24 20 60 00 00      	leaq	24608(%rsp), %rdi
  4024fe: b8 00 00 00 00               	movl	$0, %eax
  402503: 48 c7 c1 ff ff ff ff         	movq	$-1, %rcx
  40250a: f2 ae                        	repne		scasb	%es:(%rdi), %al
  40250c: 48 f7 d1                     	notq	%rcx
  40250f: 48 8d 51 ff                  	leaq	-1(%rcx), %rdx
  402513: 48 8d b4 24 20 60 00 00      	leaq	24608(%rsp), %rsi
  40251b: 89 ef                        	movl	%ebp, %edi
  40251d: e8 ff fa ff ff               	callq	-1281 <rio_writen>
  402522: 48 85 c0                     	testq	%rax, %rax
  402525: 79 6e                        	jns	110 <submitr+0x40e>
  402527: 48 b8 45 72 72 6f 72 3a 20 43	movabsq	$4836930262966366789, %rax
  402531: 48 89 03                     	movq	%rax, (%rbx)
  402534: 48 b8 6c 69 65 6e 74 20 75 6e	movabsq	$7959303600887654764, %rax
  40253e: 48 89 43 08                  	movq	%rax, 8(%rbx)
  402542: 48 b8 61 62 6c 65 20 74 6f 20	movabsq	$2337214414117954145, %rax
  40254c: 48 89 43 10                  	movq	%rax, 16(%rbx)
  402550: 48 b8 77 72 69 74 65 20 74 6f	movabsq	$8031079655625290359, %rax
  40255a: 48 89 43 18                  	movq	%rax, 24(%rbx)
  40255e: 48 b8 20 74 68 65 20 72 65 73	movabsq	$8315177770475353120, %rax
  402568: 48 89 43 20                  	movq	%rax, 32(%rbx)
  40256c: 48 b8 75 6c 74 20 73 65 72 76	movabsq	$8534995788960656501, %rax
  402576: 48 89 43 28                  	movq	%rax, 40(%rbx)
  40257a: 66 c7 43 30 65 72            	movw	$29285, 48(%rbx)
  402580: c6 43 32 00                  	movb	$0, 50(%rbx)
  402584: 89 ef                        	movl	%ebp, %edi
  402586: e8 25 e7 ff ff               	callq	-6363 <close@plt>
  40258b: b8 ff ff ff ff               	movl	$4294967295, %eax
  402590: e9 fb 02 00 00               	jmp	763 <submitr+0x709>
  402595: 89 ee                        	movl	%ebp, %esi
  402597: 48 8d bc 24 20 80 00 00      	leaq	32800(%rsp), %rdi
  40259f: e8 6c f9 ff ff               	callq	-1684 <rio_readinitb>
  4025a4: ba 00 20 00 00               	movl	$8192, %edx
  4025a9: 48 8d b4 24 20 60 00 00      	leaq	24608(%rsp), %rsi
  4025b1: 48 8d bc 24 20 80 00 00      	leaq	32800(%rsp), %rdi
  4025b9: e8 46 fb ff ff               	callq	-1210 <rio_readlineb>
  4025be: 48 85 c0                     	testq	%rax, %rax
  4025c1: 7f 7d                        	jg	125 <submitr+0x4b9>
  4025c3: 48 b8 45 72 72 6f 72 3a 20 43	movabsq	$4836930262966366789, %rax
  4025cd: 48 89 03                     	movq	%rax, (%rbx)
  4025d0: 48 b8 6c 69 65 6e 74 20 75 6e	movabsq	$7959303600887654764, %rax
  4025da: 48 89 43 08                  	movq	%rax, 8(%rbx)
  4025de: 48 b8 61 62 6c 65 20 74 6f 20	movabsq	$2337214414117954145, %rax
  4025e8: 48 89 43 10                  	movq	%rax, 16(%rbx)
  4025ec: 48 b8 72 65 61 64 20 66 69 72	movabsq	$8244232882187494770, %rax
  4025f6: 48 89 43 18                  	movq	%rax, 24(%rbx)
  4025fa: 48 b8 73 74 20 68 65 61 64 65	movabsq	$7306071583668335731, %rax
  402604: 48 89 43 20                  	movq	%rax, 32(%rbx)
  402608: 48 b8 72 20 66 72 6f 6d 20 72	movabsq	$8223693245006618738, %rax
  402612: 48 89 43 28                  	movq	%rax, 40(%rbx)
  402616: 48 b8 65 73 75 6c 74 20 73 65	movabsq	$7310222304560378725, %rax
  402620: 48 89 43 30                  	movq	%rax, 48(%rbx)
  402624: c7 43 38 72 76 65 72         	movl	$1919252082, 56(%rbx)
  40262b: c6 43 3c 00                  	movb	$0, 60(%rbx)
  40262f: 89 ef                        	movl	%ebp, %edi
  402631: e8 7a e6 ff ff               	callq	-6534 <close@plt>
  402636: b8 ff ff ff ff               	movl	$4294967295, %eax
  40263b: e9 50 02 00 00               	jmp	592 <submitr+0x709>
  402640: 4c 8d 44 24 10               	leaq	16(%rsp), %r8
  402645: 48 8d 8c 24 1c 20 00 00      	leaq	8220(%rsp), %rcx
  40264d: 48 8d 94 24 20 20 00 00      	leaq	8224(%rsp), %rdx
  402655: be af 34 40 00               	movl	$4207791, %esi
  40265a: 48 8d bc 24 20 60 00 00      	leaq	24608(%rsp), %rdi
  402662: b8 00 00 00 00               	movl	$0, %eax
  402667: e8 04 e7 ff ff               	callq	-6396 <__isoc99_sscanf@plt>
  40266c: e9 98 00 00 00               	jmp	152 <submitr+0x582>
  402671: ba 00 20 00 00               	movl	$8192, %edx
  402676: 48 8d b4 24 20 60 00 00      	leaq	24608(%rsp), %rsi
  40267e: 48 8d bc 24 20 80 00 00      	leaq	32800(%rsp), %rdi
  402686: e8 79 fa ff ff               	callq	-1415 <rio_readlineb>
  40268b: 48 85 c0                     	testq	%rax, %rax
  40268e: 7f 79                        	jg	121 <submitr+0x582>
  402690: 48 b8 45 72 72 6f 72 3a 20 43	movabsq	$4836930262966366789, %rax
  40269a: 48 89 03                     	movq	%rax, (%rbx)
  40269d: 48 b8 6c 69 65 6e 74 20 75 6e	movabsq	$7959303600887654764, %rax
  4026a7: 48 89 43 08                  	movq	%rax, 8(%rbx)
  4026ab: 48 b8 61 62 6c 65 20 74 6f 20	movabsq	$2337214414117954145, %rax
  4026b5: 48 89 43 10                  	movq	%rax, 16(%rbx)
  4026b9: 48 b8 72 65 61 64 20 68 65 61	movabsq	$7018130082659132786, %rax
  4026c3: 48 89 43 18                  	movq	%rax, 24(%rbx)
  4026c7: 48 b8 64 65 72 73 20 66 72 6f	movabsq	$8030593375116879204, %rax
  4026d1: 48 89 43 20                  	movq	%rax, 32(%rbx)
  4026d5: 48 b8 6d 20 74 68 65 20 72 65	movabsq	$7309940765091962989, %rax
  4026df: 48 89 43 28                  	movq	%rax, 40(%rbx)
  4026e3: 48 b8 73 75 6c 74 20 73 65 72	movabsq	$8243121276200973683, %rax
  4026ed: 48 89 43 30                  	movq	%rax, 48(%rbx)
  4026f1: c7 43 38 76 65 72 00         	movl	$7497078, 56(%rbx)
  4026f8: 89 ef                        	movl	%ebp, %edi
  4026fa: e8 b1 e5 ff ff               	callq	-6735 <close@plt>
  4026ff: b8 ff ff ff ff               	movl	$4294967295, %eax
  402704: e9 87 01 00 00               	jmp	391 <submitr+0x709>
  402709: 0f b6 84 24 20 60 00 00      	movzbl	24608(%rsp), %eax
  402711: 83 e8 0d                     	subl	$13, %eax
  402714: 75 15                        	jne	21 <submitr+0x5a4>
  402716: 0f b6 84 24 21 60 00 00      	movzbl	24609(%rsp), %eax
  40271e: 83 e8 0a                     	subl	$10, %eax
  402721: 75 08                        	jne	8 <submitr+0x5a4>
  402723: 0f b6 84 24 22 60 00 00      	movzbl	24610(%rsp), %eax
  40272b: 85 c0                        	testl	%eax, %eax
  40272d: 0f 85 3e ff ff ff            	jne	-194 <submitr+0x4ea>
  402733: ba 00 20 00 00               	movl	$8192, %edx
  402738: 48 8d b4 24 20 60 00 00      	leaq	24608(%rsp), %rsi
  402740: 48 8d bc 24 20 80 00 00      	leaq	32800(%rsp), %rdi
  402748: e8 b7 f9 ff ff               	callq	-1609 <rio_readlineb>
  40274d: 48 85 c0                     	testq	%rax, %rax
  402750: 0f 8f 83 00 00 00            	jg	131 <submitr+0x652>
  402756: 48 b8 45 72 72 6f 72 3a 20 43	movabsq	$4836930262966366789, %rax
  402760: 48 89 03                     	movq	%rax, (%rbx)
  402763: 48 b8 6c 69 65 6e 74 20 75 6e	movabsq	$7959303600887654764, %rax
  40276d: 48 89 43 08                  	movq	%rax, 8(%rbx)
  402771: 48 b8 61 62 6c 65 20 74 6f 20	movabsq	$2337214414117954145, %rax
  40277b: 48 89 43 10                  	movq	%rax, 16(%rbx)
  40277f: 48 b8 72 65 61 64 20 73 74 61	movabsq	$7022364301937698162, %rax
  402789: 48 89 43 18                  	movq	%rax, 24(%rbx)
  40278d: 48 b8 74 75 73 20 6d 65 73 73	movabsq	$8319104456053716340, %rax
  402797: 48 89 43 20                  	movq	%rax, 32(%rbx)
  40279b: 48 b8 61 67 65 20 66 72 6f 6d	movabsq	$7885647255504775009, %rax
  4027a5: 48 89 43 28                  	movq	%rax, 40(%rbx)
  4027a9: 48 b8 20 72 65 73 75 6c 74 20	movabsq	$2338613358215131680, %rax
  4027b3: 48 89 43 30                  	movq	%rax, 48(%rbx)
  4027b7: c7 43 38 73 65 72 76         	movl	$1987208563, 56(%rbx)
  4027be: 66 c7 43 3c 65 72            	movw	$29285, 60(%rbx)
  4027c4: c6 43 3e 00                  	movb	$0, 62(%rbx)
  4027c8: 89 ef                        	movl	%ebp, %edi
  4027ca: e8 e1 e4 ff ff               	callq	-6943 <close@plt>
  4027cf: b8 ff ff ff ff               	movl	$4294967295, %eax
  4027d4: e9 b7 00 00 00               	jmp	183 <submitr+0x709>
  4027d9: 8b 94 24 1c 20 00 00         	movl	8220(%rsp), %edx
  4027e0: 81 fa c8 00 00 00            	cmpl	$200, %edx
  4027e6: 74 28                        	je	40 <submitr+0x689>
  4027e8: 48 8d 4c 24 10               	leaq	16(%rsp), %rcx
  4027ed: be 78 34 40 00               	movl	$4207736, %esi
  4027f2: 48 89 df                     	movq	%rbx, %rdi
  4027f5: b8 00 00 00 00               	movl	$0, %eax
  4027fa: e8 e1 e5 ff ff               	callq	-6687 <sprintf@plt>
  4027ff: 89 ef                        	movl	%ebp, %edi
  402801: e8 aa e4 ff ff               	callq	-6998 <close@plt>
  402806: b8 ff ff ff ff               	movl	$4294967295, %eax
  40280b: e9 80 00 00 00               	jmp	128 <submitr+0x709>
  402810: 48 8d b4 24 20 60 00 00      	leaq	24608(%rsp), %rsi
  402818: 48 89 df                     	movq	%rbx, %rdi
  40281b: e8 20 e4 ff ff               	callq	-7136 <strcpy@plt>
  402820: 89 ef                        	movl	%ebp, %edi
  402822: e8 89 e4 ff ff               	callq	-7031 <close@plt>
  402827: 0f b6 03                     	movzbl	(%rbx), %eax
  40282a: 83 e8 4f                     	subl	$79, %eax
  40282d: 75 18                        	jne	24 <submitr+0x6c0>
  40282f: 0f b6 53 01                  	movzbl	1(%rbx), %edx
  402833: 83 ea 4b                     	subl	$75, %edx
  402836: 75 11                        	jne	17 <submitr+0x6c2>
  402838: 0f b6 53 02                  	movzbl	2(%rbx), %edx
  40283c: 83 ea 0a                     	subl	$10, %edx
  40283f: 75 08                        	jne	8 <submitr+0x6c2>
  402841: 0f b6 53 03                  	movzbl	3(%rbx), %edx
  402845: eb 02                        	jmp	2 <submitr+0x6c2>
  402847: 89 c2                        	movl	%eax, %edx
  402849: 85 d2                        	testl	%edx, %edx
  40284b: 74 30                        	je	48 <submitr+0x6f6>
  40284d: bf c0 34 40 00               	movl	$4207808, %edi
  402852: b9 05 00 00 00               	movl	$5, %ecx
  402857: 48 89 de                     	movq	%rbx, %rsi
  40285a: f3 a6                        	rep		cmpsb	%es:(%rdi), (%rsi)
  40285c: 0f 97 c1                     	seta	%cl
  40285f: 0f 92 c2                     	setb	%dl
  402862: 38 d1                        	cmpb	%dl, %cl
  402864: 74 1e                        	je	30 <submitr+0x6fd>
  402866: 85 c0                        	testl	%eax, %eax
  402868: 75 0d                        	jne	13 <submitr+0x6f0>
  40286a: 0f b6 43 01                  	movzbl	1(%rbx), %eax
  40286e: 83 e8 4b                     	subl	$75, %eax
  402871: 75 04                        	jne	4 <submitr+0x6f0>
  402873: 0f b6 43 02                  	movzbl	2(%rbx), %eax
  402877: 85 c0                        	testl	%eax, %eax
  402879: 75 10                        	jne	16 <submitr+0x704>
  40287b: eb 13                        	jmp	19 <submitr+0x709>
  40287d: b8 00 00 00 00               	movl	$0, %eax
  402882: eb 0c                        	jmp	12 <submitr+0x709>
  402884: b8 00 00 00 00               	movl	$0, %eax
  402889: eb 05                        	jmp	5 <submitr+0x709>
  40288b: b8 ff ff ff ff               	movl	$4294967295, %eax
  402890: 48 81 c4 48 a0 00 00         	addq	$41032, %rsp
  402897: 5b                           	popq	%rbx
  402898: 5d                           	popq	%rbp
  402899: 41 5c                        	popq	%r12
  40289b: 41 5d                        	popq	%r13
  40289d: 41 5e                        	popq	%r14
  40289f: 41 5f                        	popq	%r15
  4028a1: c3                           	retq

00000000004028a2 init_timeout:
  4028a2: 53                           	pushq	%rbx
  4028a3: 89 fb                        	movl	%edi, %ebx
  4028a5: 85 ff                        	testl	%edi, %edi
  4028a7: 74 1f                        	je	31 <init_timeout+0x26>
  4028a9: 85 ff                        	testl	%edi, %edi
  4028ab: 79 05                        	jns	5 <init_timeout+0x10>
  4028ad: bb 00 00 00 00               	movl	$0, %ebx
  4028b2: be 22 1f 40 00               	movl	$4202274, %esi
  4028b7: bf 0e 00 00 00               	movl	$14, %edi
  4028bc: e8 1f e4 ff ff               	callq	-7137 <signal@plt>
  4028c1: 89 df                        	movl	%ebx, %edi
  4028c3: e8 d8 e3 ff ff               	callq	-7208 <alarm@plt>
  4028c8: 5b                           	popq	%rbx
  4028c9: c3                           	retq

00000000004028ca init_driver:
  4028ca: 55                           	pushq	%rbp
  4028cb: 53                           	pushq	%rbx
  4028cc: 48 83 ec 18                  	subq	$24, %rsp
  4028d0: 48 89 fd                     	movq	%rdi, %rbp
  4028d3: be 01 00 00 00               	movl	$1, %esi
  4028d8: bf 0d 00 00 00               	movl	$13, %edi
  4028dd: e8 fe e3 ff ff               	callq	-7170 <signal@plt>
  4028e2: be 01 00 00 00               	movl	$1, %esi
  4028e7: bf 1d 00 00 00               	movl	$29, %edi
  4028ec: e8 ef e3 ff ff               	callq	-7185 <signal@plt>
  4028f1: be 01 00 00 00               	movl	$1, %esi
  4028f6: bf 1d 00 00 00               	movl	$29, %edi
  4028fb: e8 e0 e3 ff ff               	callq	-7200 <signal@plt>
  402900: ba 00 00 00 00               	movl	$0, %edx
  402905: be 01 00 00 00               	movl	$1, %esi
  40290a: bf 02 00 00 00               	movl	$2, %edi
  40290f: e8 fc e4 ff ff               	callq	-6916 <socket@plt>
  402914: 89 c3                        	movl	%eax, %ebx
  402916: 85 c0                        	testl	%eax, %eax
  402918: 79 4f                        	jns	79 <init_driver+0x9f>
  40291a: 48 b8 45 72 72 6f 72 3a 20 43	movabsq	$4836930262966366789, %rax
  402924: 48 89 45 00                  	movq	%rax, (%rbp)
  402928: 48 b8 6c 69 65 6e 74 20 75 6e	movabsq	$7959303600887654764, %rax
  402932: 48 89 45 08                  	movq	%rax, 8(%rbp)
  402936: 48 b8 61 62 6c 65 20 74 6f 20	movabsq	$2337214414117954145, %rax
  402940: 48 89 45 10                  	movq	%rax, 16(%rbp)
  402944: 48 b8 63 72 65 61 74 65 20 73	movabsq	$8295742064141103715, %rax
  40294e: 48 89 45 18                  	movq	%rax, 24(%rbp)
  402952: c7 45 20 6f 63 6b 65         	movl	$1701536623, 32(%rbp)
  402959: 66 c7 45 24 74 00            	movw	$116, 36(%rbp)
  40295f: b8 ff ff ff ff               	movl	$4294967295, %eax
  402964: e9 23 01 00 00               	jmp	291 <init_driver+0x1c2>
  402969: bf 30 2f 40 00               	movl	$4206384, %edi
  40296e: e8 7d e3 ff ff               	callq	-7299 <gethostbyname@plt>
  402973: 48 85 c0                     	testq	%rax, %rax
  402976: 75 68                        	jne	104 <init_driver+0x116>
  402978: 48 b8 45 72 72 6f 72 3a 20 44	movabsq	$4908987857004294725, %rax
  402982: 48 89 45 00                  	movq	%rax, (%rbp)
  402986: 48 b8 4e 53 20 69 73 20 75 6e	movabsq	$7959303596504273742, %rax
  402990: 48 89 45 08                  	movq	%rax, 8(%rbp)
  402994: 48 b8 61 62 6c 65 20 74 6f 20	movabsq	$2337214414117954145, %rax
  40299e: 48 89 45 10                  	movq	%rax, 16(%rbp)
  4029a2: 48 b8 72 65 73 6f 6c 76 65 20	movabsq	$2334402189959849330, %rax
  4029ac: 48 89 45 18                  	movq	%rax, 24(%rbp)
  4029b0: 48 b8 73 65 72 76 65 72 20 61	movabsq	$6998719601038222707, %rax
  4029ba: 48 89 45 20                  	movq	%rax, 32(%rbp)
  4029be: c7 45 28 64 64 72 65         	movl	$1701995620, 40(%rbp)
  4029c5: 66 c7 45 2c 73 73            	movw	$29555, 44(%rbp)
  4029cb: c6 45 2e 00                  	movb	$0, 46(%rbp)
  4029cf: 89 df                        	movl	%ebx, %edi
  4029d1: e8 da e2 ff ff               	callq	-7462 <close@plt>
  4029d6: b8 ff ff ff ff               	movl	$4294967295, %eax
  4029db: e9 ac 00 00 00               	jmp	172 <init_driver+0x1c2>
  4029e0: 48 c7 04 24 00 00 00 00      	movq	$0, (%rsp)
  4029e8: 48 c7 44 24 08 00 00 00 00   	movq	$0, 8(%rsp)
  4029f1: 66 c7 04 24 02 00            	movw	$2, (%rsp)
  4029f7: 48 8b 48 18                  	movq	24(%rax), %rcx
  4029fb: 48 63 50 14                  	movslq	20(%rax), %rdx
  4029ff: 48 8d 74 24 04               	leaq	4(%rsp), %rsi
  402a04: 48 8b 39                     	movq	(%rcx), %rdi
  402a07: e8 84 e3 ff ff               	callq	-7292 <bcopy@plt>
  402a0c: 66 c7 44 24 02 47 26         	movw	$9799, 2(%rsp)
  402a13: ba 10 00 00 00               	movl	$16, %edx
  402a18: 48 89 e6                     	movq	%rsp, %rsi
  402a1b: 89 df                        	movl	%ebx, %edi
  402a1d: e8 de e3 ff ff               	callq	-7202 <connect@plt>
  402a22: 85 c0                        	testl	%eax, %eax
  402a24: 79 50                        	jns	80 <init_driver+0x1ac>
  402a26: 48 b8 45 72 72 6f 72 3a 20 55	movabsq	$6133966955649069637, %rax
  402a30: 48 89 45 00                  	movq	%rax, (%rbp)
  402a34: 48 b8 6e 61 62 6c 65 20 74 6f	movabsq	$8031079655490609518, %rax
  402a3e: 48 89 45 08                  	movq	%rax, 8(%rbp)
  402a42: 48 b8 20 63 6f 6e 6e 65 63 74	movabsq	$8386658456067597088, %rax
  402a4c: 48 89 45 10                  	movq	%rax, 16(%rbp)
  402a50: 48 b8 20 74 6f 20 73 65 72 76	movabsq	$8534995788960330784, %rax
  402a5a: 48 89 45 18                  	movq	%rax, 24(%rbp)
  402a5e: 66 c7 45 20 65 72            	movw	$29285, 32(%rbp)
  402a64: c6 45 22 00                  	movb	$0, 34(%rbp)
  402a68: 89 df                        	movl	%ebx, %edi
  402a6a: e8 41 e2 ff ff               	callq	-7615 <close@plt>
  402a6f: b8 ff ff ff ff               	movl	$4294967295, %eax
  402a74: eb 16                        	jmp	22 <init_driver+0x1c2>
  402a76: 89 df                        	movl	%ebx, %edi
  402a78: e8 33 e2 ff ff               	callq	-7629 <close@plt>
  402a7d: 66 c7 45 00 4f 4b            	movw	$19279, (%rbp)
  402a83: c6 45 02 00                  	movb	$0, 2(%rbp)
  402a87: b8 00 00 00 00               	movl	$0, %eax
  402a8c: 48 83 c4 18                  	addq	$24, %rsp
  402a90: 5b                           	popq	%rbx
  402a91: 5d                           	popq	%rbp
  402a92: c3                           	retq

0000000000402a93 driver_post:
  402a93: 53                           	pushq	%rbx
  402a94: 48 83 ec 10                  	subq	$16, %rsp
  402a98: 4c 89 cb                     	movq	%r9, %rbx
  402a9b: 45 85 c0                     	testl	%r8d, %r8d
  402a9e: 74 22                        	je	34 <driver_post+0x2f>
  402aa0: 48 89 ce                     	movq	%rcx, %rsi
  402aa3: bf c5 34 40 00               	movl	$4207813, %edi
  402aa8: b8 00 00 00 00               	movl	$0, %eax
  402aad: e8 ce e1 ff ff               	callq	-7730 <printf@plt>
  402ab2: 66 c7 03 4f 4b               	movw	$19279, (%rbx)
  402ab7: c6 43 02 00                  	movb	$0, 2(%rbx)
  402abb: b8 00 00 00 00               	movl	$0, %eax
  402ac0: eb 39                        	jmp	57 <driver_post+0x68>
  402ac2: 48 85 ff                     	testq	%rdi, %rdi
  402ac5: 74 26                        	je	38 <driver_post+0x5a>
  402ac7: 80 3f 00                     	cmpb	$0, (%rdi)
  402aca: 74 21                        	je	33 <driver_post+0x5a>
  402acc: 4c 89 0c 24                  	movq	%r9, (%rsp)
  402ad0: 49 89 c9                     	movq	%rcx, %r9
  402ad3: 49 89 d0                     	movq	%rdx, %r8
  402ad6: 48 89 f9                     	movq	%rdi, %rcx
  402ad9: 48 89 f2                     	movq	%rsi, %rdx
  402adc: be 26 47 00 00               	movl	$18214, %esi
  402ae1: bf 30 2f 40 00               	movl	$4206384, %edi
  402ae6: e8 9c f6 ff ff               	callq	-2404 <submitr>
  402aeb: eb 0e                        	jmp	14 <driver_post+0x68>
  402aed: 66 c7 03 4f 4b               	movw	$19279, (%rbx)
  402af2: c6 43 02 00                  	movb	$0, 2(%rbx)
  402af6: b8 00 00 00 00               	movl	$0, %eax
  402afb: 48 83 c4 10                  	addq	$16, %rsp
  402aff: 5b                           	popq	%rbx
  402b00: c3                           	retq

0000000000402b01 check:
  402b01: 89 f8                        	movl	%edi, %eax
  402b03: c1 e8 1c                     	shrl	$28, %eax
  402b06: 85 c0                        	testl	%eax, %eax
  402b08: 74 1d                        	je	29 <check+0x26>
  402b0a: b9 00 00 00 00               	movl	$0, %ecx
  402b0f: eb 0b                        	jmp	11 <check+0x1b>
  402b11: 89 f8                        	movl	%edi, %eax
  402b13: d3 e8                        	shrl	%cl, %eax
  402b15: 3c 0a                        	cmpb	$10, %al
  402b17: 74 14                        	je	20 <check+0x2c>
  402b19: 83 c1 08                     	addl	$8, %ecx
  402b1c: 83 f9 1f                     	cmpl	$31, %ecx
  402b1f: 7e f0                        	jle	-16 <check+0x10>
  402b21: b8 01 00 00 00               	movl	$1, %eax
  402b26: c3                           	retq
  402b27: b8 00 00 00 00               	movl	$0, %eax
  402b2c: c3                           	retq
  402b2d: b8 00 00 00 00               	movl	$0, %eax
  402b32: c3                           	retq

0000000000402b33 gencookie:
  402b33: 53                           	pushq	%rbx
  402b34: 83 c7 01                     	addl	$1, %edi
  402b37: e8 e4 e0 ff ff               	callq	-7964 <srandom@plt>
  402b3c: e8 0f e2 ff ff               	callq	-7665 <random@plt>
  402b41: 89 c3                        	movl	%eax, %ebx
  402b43: 89 c7                        	movl	%eax, %edi
  402b45: e8 b7 ff ff ff               	callq	-73 <check>
  402b4a: 85 c0                        	testl	%eax, %eax
  402b4c: 74 ee                        	je	-18 <gencookie+0x9>
  402b4e: 89 d8                        	movl	%ebx, %eax
  402b50: 5b                           	popq	%rbx
  402b51: c3                           	retq
  402b52: 66 2e 0f 1f 84 00 00 00 00 00	nopw	%cs:(%rax,%rax)
  402b5c: 0f 1f 40 00                  	nopl	(%rax)

0000000000402b60 __libc_csu_init:
  402b60: 41 57                        	pushq	%r15
  402b62: 41 89 ff                     	movl	%edi, %r15d
  402b65: 41 56                        	pushq	%r14
  402b67: 49 89 f6                     	movq	%rsi, %r14
  402b6a: 41 55                        	pushq	%r13
  402b6c: 49 89 d5                     	movq	%rdx, %r13
  402b6f: 41 54                        	pushq	%r12
  402b71: 4c 8d 25 98 12 20 00         	leaq	2101912(%rip), %r12
  402b78: 55                           	pushq	%rbp
  402b79: 48 8d 2d 98 12 20 00         	leaq	2101912(%rip), %rbp
  402b80: 53                           	pushq	%rbx
  402b81: 4c 29 e5                     	subq	%r12, %rbp
  402b84: 31 db                        	xorl	%ebx, %ebx
  402b86: 48 c1 fd 03                  	sarq	$3, %rbp
  402b8a: 48 83 ec 08                  	subq	$8, %rsp
  402b8e: e8 35 e0 ff ff               	callq	-8139 <_init>
  402b93: 48 85 ed                     	testq	%rbp, %rbp
  402b96: 74 1e                        	je	30 <__libc_csu_init+0x56>
  402b98: 0f 1f 84 00 00 00 00 00      	nopl	(%rax,%rax)
  402ba0: 4c 89 ea                     	movq	%r13, %rdx
  402ba3: 4c 89 f6                     	movq	%r14, %rsi
  402ba6: 44 89 ff                     	movl	%r15d, %edi
  402ba9: 41 ff 14 dc                  	callq	*(%r12,%rbx,8)
  402bad: 48 83 c3 01                  	addq	$1, %rbx
  402bb1: 48 39 eb                     	cmpq	%rbp, %rbx
  402bb4: 75 ea                        	jne	-22 <__libc_csu_init+0x40>
  402bb6: 48 83 c4 08                  	addq	$8, %rsp
  402bba: 5b                           	popq	%rbx
  402bbb: 5d                           	popq	%rbp
  402bbc: 41 5c                        	popq	%r12
  402bbe: 41 5d                        	popq	%r13
  402bc0: 41 5e                        	popq	%r14
  402bc2: 41 5f                        	popq	%r15
  402bc4: c3                           	retq
  402bc5: 90                           	nop
  402bc6: 66 2e 0f 1f 84 00 00 00 00 00	nopw	%cs:(%rax,%rax)

0000000000402bd0 __libc_csu_fini:
  402bd0: f3 c3                        	rep		retq

Disassembly of section .fini:

0000000000402bd4 _fini:
  402bd4: 48 83 ec 08                  	subq	$8, %rsp
  402bd8: 48 83 c4 08                  	addq	$8, %rsp
  402bdc: c3                           	retq
