
rtarget:	file format ELF64-x86-64


Disassembly of section .init:

0000000000400bc8 _init:
  400bc8: 48 83 ec 08                  	subq	$8, %rsp
  400bcc: 48 8b 05 25 44 20 00         	movq	2114597(%rip), %rax
  400bd3: 48 85 c0                     	testq	%rax, %rax
  400bd6: 74 05                        	je	5 <_init+0x15>
  400bd8: e8 33 01 00 00               	callq	307 <__gmon_start__@plt>
  400bdd: 48 83 c4 08                  	addq	$8, %rsp
  400be1: c3                           	retq

Disassembly of section .plt:

0000000000400bf0 .plt:
  400bf0: ff 35 12 44 20 00            	pushq	2114578(%rip)
  400bf6: ff 25 14 44 20 00            	jmpq	*2114580(%rip)
  400bfc: 0f 1f 40 00                  	nopl	(%rax)

0000000000400c00 strcasecmp@plt:
  400c00: ff 25 12 44 20 00            	jmpq	*2114578(%rip)
  400c06: 68 00 00 00 00               	pushq	$0
  400c0b: e9 e0 ff ff ff               	jmp	-32 <.plt>

0000000000400c10 __errno_location@plt:
  400c10: ff 25 0a 44 20 00            	jmpq	*2114570(%rip)
  400c16: 68 01 00 00 00               	pushq	$1
  400c1b: e9 d0 ff ff ff               	jmp	-48 <.plt>

0000000000400c20 srandom@plt:
  400c20: ff 25 02 44 20 00            	jmpq	*2114562(%rip)
  400c26: 68 02 00 00 00               	pushq	$2
  400c2b: e9 c0 ff ff ff               	jmp	-64 <.plt>

0000000000400c30 strncmp@plt:
  400c30: ff 25 fa 43 20 00            	jmpq	*2114554(%rip)
  400c36: 68 03 00 00 00               	pushq	$3
  400c3b: e9 b0 ff ff ff               	jmp	-80 <.plt>

0000000000400c40 strcpy@plt:
  400c40: ff 25 f2 43 20 00            	jmpq	*2114546(%rip)
  400c46: 68 04 00 00 00               	pushq	$4
  400c4b: e9 a0 ff ff ff               	jmp	-96 <.plt>

0000000000400c50 puts@plt:
  400c50: ff 25 ea 43 20 00            	jmpq	*2114538(%rip)
  400c56: 68 05 00 00 00               	pushq	$5
  400c5b: e9 90 ff ff ff               	jmp	-112 <.plt>

0000000000400c60 write@plt:
  400c60: ff 25 e2 43 20 00            	jmpq	*2114530(%rip)
  400c66: 68 06 00 00 00               	pushq	$6
  400c6b: e9 80 ff ff ff               	jmp	-128 <.plt>

0000000000400c70 mmap@plt:
  400c70: ff 25 da 43 20 00            	jmpq	*2114522(%rip)
  400c76: 68 07 00 00 00               	pushq	$7
  400c7b: e9 70 ff ff ff               	jmp	-144 <.plt>

0000000000400c80 printf@plt:
  400c80: ff 25 d2 43 20 00            	jmpq	*2114514(%rip)
  400c86: 68 08 00 00 00               	pushq	$8
  400c8b: e9 60 ff ff ff               	jmp	-160 <.plt>

0000000000400c90 memset@plt:
  400c90: ff 25 ca 43 20 00            	jmpq	*2114506(%rip)
  400c96: 68 09 00 00 00               	pushq	$9
  400c9b: e9 50 ff ff ff               	jmp	-176 <.plt>

0000000000400ca0 alarm@plt:
  400ca0: ff 25 c2 43 20 00            	jmpq	*2114498(%rip)
  400ca6: 68 0a 00 00 00               	pushq	$10
  400cab: e9 40 ff ff ff               	jmp	-192 <.plt>

0000000000400cb0 close@plt:
  400cb0: ff 25 ba 43 20 00            	jmpq	*2114490(%rip)
  400cb6: 68 0b 00 00 00               	pushq	$11
  400cbb: e9 30 ff ff ff               	jmp	-208 <.plt>

0000000000400cc0 read@plt:
  400cc0: ff 25 b2 43 20 00            	jmpq	*2114482(%rip)
  400cc6: 68 0c 00 00 00               	pushq	$12
  400ccb: e9 20 ff ff ff               	jmp	-224 <.plt>

0000000000400cd0 __libc_start_main@plt:
  400cd0: ff 25 aa 43 20 00            	jmpq	*2114474(%rip)
  400cd6: 68 0d 00 00 00               	pushq	$13
  400cdb: e9 10 ff ff ff               	jmp	-240 <.plt>

0000000000400ce0 signal@plt:
  400ce0: ff 25 a2 43 20 00            	jmpq	*2114466(%rip)
  400ce6: 68 0e 00 00 00               	pushq	$14
  400ceb: e9 00 ff ff ff               	jmp	-256 <.plt>

0000000000400cf0 gethostbyname@plt:
  400cf0: ff 25 9a 43 20 00            	jmpq	*2114458(%rip)
  400cf6: 68 0f 00 00 00               	pushq	$15
  400cfb: e9 f0 fe ff ff               	jmp	-272 <.plt>

0000000000400d00 fprintf@plt:
  400d00: ff 25 92 43 20 00            	jmpq	*2114450(%rip)
  400d06: 68 10 00 00 00               	pushq	$16
  400d0b: e9 e0 fe ff ff               	jmp	-288 <.plt>

0000000000400d10 __gmon_start__@plt:
  400d10: ff 25 8a 43 20 00            	jmpq	*2114442(%rip)
  400d16: 68 11 00 00 00               	pushq	$17
  400d1b: e9 d0 fe ff ff               	jmp	-304 <.plt>

0000000000400d20 strtol@plt:
  400d20: ff 25 82 43 20 00            	jmpq	*2114434(%rip)
  400d26: 68 12 00 00 00               	pushq	$18
  400d2b: e9 c0 fe ff ff               	jmp	-320 <.plt>

0000000000400d30 memcpy@plt:
  400d30: ff 25 7a 43 20 00            	jmpq	*2114426(%rip)
  400d36: 68 13 00 00 00               	pushq	$19
  400d3b: e9 b0 fe ff ff               	jmp	-336 <.plt>

0000000000400d40 time@plt:
  400d40: ff 25 72 43 20 00            	jmpq	*2114418(%rip)
  400d46: 68 14 00 00 00               	pushq	$20
  400d4b: e9 a0 fe ff ff               	jmp	-352 <.plt>

0000000000400d50 random@plt:
  400d50: ff 25 6a 43 20 00            	jmpq	*2114410(%rip)
  400d56: 68 15 00 00 00               	pushq	$21
  400d5b: e9 90 fe ff ff               	jmp	-368 <.plt>

0000000000400d60 _IO_getc@plt:
  400d60: ff 25 62 43 20 00            	jmpq	*2114402(%rip)
  400d66: 68 16 00 00 00               	pushq	$22
  400d6b: e9 80 fe ff ff               	jmp	-384 <.plt>

0000000000400d70 __isoc99_sscanf@plt:
  400d70: ff 25 5a 43 20 00            	jmpq	*2114394(%rip)
  400d76: 68 17 00 00 00               	pushq	$23
  400d7b: e9 70 fe ff ff               	jmp	-400 <.plt>

0000000000400d80 munmap@plt:
  400d80: ff 25 52 43 20 00            	jmpq	*2114386(%rip)
  400d86: 68 18 00 00 00               	pushq	$24
  400d8b: e9 60 fe ff ff               	jmp	-416 <.plt>

0000000000400d90 bcopy@plt:
  400d90: ff 25 4a 43 20 00            	jmpq	*2114378(%rip)
  400d96: 68 19 00 00 00               	pushq	$25
  400d9b: e9 50 fe ff ff               	jmp	-432 <.plt>

0000000000400da0 fopen@plt:
  400da0: ff 25 42 43 20 00            	jmpq	*2114370(%rip)
  400da6: 68 1a 00 00 00               	pushq	$26
  400dab: e9 40 fe ff ff               	jmp	-448 <.plt>

0000000000400db0 getopt@plt:
  400db0: ff 25 3a 43 20 00            	jmpq	*2114362(%rip)
  400db6: 68 1b 00 00 00               	pushq	$27
  400dbb: e9 30 fe ff ff               	jmp	-464 <.plt>

0000000000400dc0 strtoul@plt:
  400dc0: ff 25 32 43 20 00            	jmpq	*2114354(%rip)
  400dc6: 68 1c 00 00 00               	pushq	$28
  400dcb: e9 20 fe ff ff               	jmp	-480 <.plt>

0000000000400dd0 gethostname@plt:
  400dd0: ff 25 2a 43 20 00            	jmpq	*2114346(%rip)
  400dd6: 68 1d 00 00 00               	pushq	$29
  400ddb: e9 10 fe ff ff               	jmp	-496 <.plt>

0000000000400de0 sprintf@plt:
  400de0: ff 25 22 43 20 00            	jmpq	*2114338(%rip)
  400de6: 68 1e 00 00 00               	pushq	$30
  400deb: e9 00 fe ff ff               	jmp	-512 <.plt>

0000000000400df0 exit@plt:
  400df0: ff 25 1a 43 20 00            	jmpq	*2114330(%rip)
  400df6: 68 1f 00 00 00               	pushq	$31
  400dfb: e9 f0 fd ff ff               	jmp	-528 <.plt>

0000000000400e00 connect@plt:
  400e00: ff 25 12 43 20 00            	jmpq	*2114322(%rip)
  400e06: 68 20 00 00 00               	pushq	$32
  400e0b: e9 e0 fd ff ff               	jmp	-544 <.plt>

0000000000400e10 socket@plt:
  400e10: ff 25 0a 43 20 00            	jmpq	*2114314(%rip)
  400e16: 68 21 00 00 00               	pushq	$33
  400e1b: e9 d0 fd ff ff               	jmp	-560 <.plt>

Disassembly of section .text:

0000000000400e20 _start:
  400e20: 31 ed                        	xorl	%ebp, %ebp
  400e22: 49 89 d1                     	movq	%rdx, %r9
  400e25: 5e                           	popq	%rsi
  400e26: 48 89 e2                     	movq	%rsp, %rdx
  400e29: 48 83 e4 f0                  	andq	$-16, %rsp
  400e2d: 50                           	pushq	%rax
  400e2e: 54                           	pushq	%rsp
  400e2f: 49 c7 c0 00 2d 40 00         	movq	$4205824, %r8
  400e36: 48 c7 c1 90 2c 40 00         	movq	$4205712, %rcx
  400e3d: 48 c7 c7 e0 10 40 00         	movq	$4198624, %rdi
  400e44: e8 87 fe ff ff               	callq	-377 <__libc_start_main@plt>
  400e49: f4                           	hlt
  400e4a: 66 0f 1f 44 00 00            	nopw	(%rax,%rax)

0000000000400e50 deregister_tm_clones:
  400e50: b8 b7 54 60 00               	movl	$6313143, %eax
  400e55: 55                           	pushq	%rbp
  400e56: 48 2d b0 54 60 00            	subq	$6313136, %rax
  400e5c: 48 83 f8 0e                  	cmpq	$14, %rax
  400e60: 48 89 e5                     	movq	%rsp, %rbp
  400e63: 77 02                        	ja	2 <deregister_tm_clones+0x17>
  400e65: 5d                           	popq	%rbp
  400e66: c3                           	retq
  400e67: b8 00 00 00 00               	movl	$0, %eax
  400e6c: 48 85 c0                     	testq	%rax, %rax
  400e6f: 74 f4                        	je	-12 <deregister_tm_clones+0x15>
  400e71: 5d                           	popq	%rbp
  400e72: bf b0 54 60 00               	movl	$6313136, %edi
  400e77: ff e0                        	jmpq	*%rax
  400e79: 0f 1f 80 00 00 00 00         	nopl	(%rax)

0000000000400e80 register_tm_clones:
  400e80: b8 b0 54 60 00               	movl	$6313136, %eax
  400e85: 55                           	pushq	%rbp
  400e86: 48 2d b0 54 60 00            	subq	$6313136, %rax
  400e8c: 48 c1 f8 03                  	sarq	$3, %rax
  400e90: 48 89 e5                     	movq	%rsp, %rbp
  400e93: 48 89 c2                     	movq	%rax, %rdx
  400e96: 48 c1 ea 3f                  	shrq	$63, %rdx
  400e9a: 48 01 d0                     	addq	%rdx, %rax
  400e9d: 48 d1 f8                     	sarq	%rax
  400ea0: 75 02                        	jne	2 <register_tm_clones+0x24>
  400ea2: 5d                           	popq	%rbp
  400ea3: c3                           	retq
  400ea4: ba 00 00 00 00               	movl	$0, %edx
  400ea9: 48 85 d2                     	testq	%rdx, %rdx
  400eac: 74 f4                        	je	-12 <register_tm_clones+0x22>
  400eae: 5d                           	popq	%rbp
  400eaf: 48 89 c6                     	movq	%rax, %rsi
  400eb2: bf b0 54 60 00               	movl	$6313136, %edi
  400eb7: ff e2                        	jmpq	*%rdx
  400eb9: 0f 1f 80 00 00 00 00         	nopl	(%rax)

0000000000400ec0 __do_global_dtors_aux:
  400ec0: 80 3d 11 46 20 00 00         	cmpb	$0, 2115089(%rip)
  400ec7: 75 11                        	jne	17 <__do_global_dtors_aux+0x1a>
  400ec9: 55                           	pushq	%rbp
  400eca: 48 89 e5                     	movq	%rsp, %rbp
  400ecd: e8 7e ff ff ff               	callq	-130 <deregister_tm_clones>
  400ed2: 5d                           	popq	%rbp
  400ed3: c6 05 fe 45 20 00 01         	movb	$1, 2115070(%rip)
  400eda: f3 c3                        	rep		retq
  400edc: 0f 1f 40 00                  	nopl	(%rax)

0000000000400ee0 frame_dummy:
  400ee0: 48 83 3d 38 3f 20 00 00      	cmpq	$0, 2113336(%rip)
  400ee8: 74 1e                        	je	30 <frame_dummy+0x28>
  400eea: b8 00 00 00 00               	movl	$0, %eax
  400eef: 48 85 c0                     	testq	%rax, %rax
  400ef2: 74 14                        	je	20 <frame_dummy+0x28>
  400ef4: 55                           	pushq	%rbp
  400ef5: bf 20 4e 60 00               	movl	$6311456, %edi
  400efa: 48 89 e5                     	movq	%rsp, %rbp
  400efd: ff d0                        	callq	*%rax
  400eff: 5d                           	popq	%rbp
  400f00: e9 7b ff ff ff               	jmp	-133 <register_tm_clones>
  400f05: 0f 1f 00                     	nopl	(%rax)
  400f08: e9 73 ff ff ff               	jmp	-141 <register_tm_clones>
  400f0d: 0f 1f 00                     	nopl	(%rax)

0000000000400f10 usage:
  400f10: 48 83 ec 08                  	subq	$8, %rsp
  400f14: 48 89 fe                     	movq	%rdi, %rsi
  400f17: 83 3d ea 45 20 00 00         	cmpl	$0, 2115050(%rip)
  400f1e: 74 39                        	je	57 <usage+0x49>
  400f20: bf 20 2d 40 00               	movl	$4205856, %edi
  400f25: b8 00 00 00 00               	movl	$0, %eax
  400f2a: e8 51 fd ff ff               	callq	-687 <printf@plt>
  400f2f: bf 58 2d 40 00               	movl	$4205912, %edi
  400f34: e8 17 fd ff ff               	callq	-745 <puts@plt>
  400f39: bf d0 2e 40 00               	movl	$4206288, %edi
  400f3e: e8 0d fd ff ff               	callq	-755 <puts@plt>
  400f43: bf 80 2d 40 00               	movl	$4205952, %edi
  400f48: e8 03 fd ff ff               	callq	-765 <puts@plt>
  400f4d: bf ea 2e 40 00               	movl	$4206314, %edi
  400f52: e8 f9 fc ff ff               	callq	-775 <puts@plt>
  400f57: eb 2d                        	jmp	45 <usage+0x76>
  400f59: bf 06 2f 40 00               	movl	$4206342, %edi
  400f5e: b8 00 00 00 00               	movl	$0, %eax
  400f63: e8 18 fd ff ff               	callq	-744 <printf@plt>
  400f68: bf a8 2d 40 00               	movl	$4205992, %edi
  400f6d: e8 de fc ff ff               	callq	-802 <puts@plt>
  400f72: bf d0 2d 40 00               	movl	$4206032, %edi
  400f77: e8 d4 fc ff ff               	callq	-812 <puts@plt>
  400f7c: bf 24 2f 40 00               	movl	$4206372, %edi
  400f81: e8 ca fc ff ff               	callq	-822 <puts@plt>
  400f86: bf 00 00 00 00               	movl	$0, %edi
  400f8b: e8 60 fe ff ff               	callq	-416 <exit@plt>

0000000000400f90 initialize_target:
  400f90: 55                           	pushq	%rbp
  400f91: 53                           	pushq	%rbx
  400f92: 48 81 ec 08 21 00 00         	subq	$8456, %rsp
  400f99: 89 f5                        	movl	%esi, %ebp
  400f9b: 89 3d 57 45 20 00            	movl	%edi, 2114903(%rip)
  400fa1: 8b 3d c1 41 20 00            	movl	2113985(%rip), %edi
  400fa7: e8 b7 1c 00 00               	callq	7351 <gencookie>
  400fac: 89 05 52 45 20 00            	movl	%eax, 2114898(%rip)
  400fb2: 89 c7                        	movl	%eax, %edi
  400fb4: e8 aa 1c 00 00               	callq	7338 <gencookie>
  400fb9: 89 05 41 45 20 00            	movl	%eax, 2114881(%rip)
  400fbf: 8b 05 a3 41 20 00            	movl	2113955(%rip), %eax
  400fc5: 8d 78 01                     	leal	1(%rax), %edi
  400fc8: e8 53 fc ff ff               	callq	-941 <srandom@plt>
  400fcd: e8 7e fd ff ff               	callq	-642 <random@plt>
  400fd2: 89 c7                        	movl	%eax, %edi
  400fd4: e8 ca 02 00 00               	callq	714 <scramble>
  400fd9: 89 c3                        	movl	%eax, %ebx
  400fdb: 85 ed                        	testl	%ebp, %ebp
  400fdd: 74 18                        	je	24 <initialize_target+0x67>
  400fdf: bf 00 00 00 00               	movl	$0, %edi
  400fe4: e8 57 fd ff ff               	callq	-681 <time@plt>
  400fe9: 89 c7                        	movl	%eax, %edi
  400feb: e8 30 fc ff ff               	callq	-976 <srandom@plt>
  400ff0: e8 5b fd ff ff               	callq	-677 <random@plt>
  400ff5: eb 05                        	jmp	5 <initialize_target+0x6c>
  400ff7: b8 00 00 00 00               	movl	$0, %eax
  400ffc: 01 c3                        	addl	%eax, %ebx
  400ffe: 0f b7 db                     	movzwl	%bx, %ebx
  401001: 8d 04 dd 00 01 00 00         	leal	256(,%rbx,8), %eax
  401008: 89 c0                        	movl	%eax, %eax
  40100a: 48 89 05 8f 44 20 00         	movq	%rax, 2114703(%rip)
  401011: c6 05 10 51 20 00 72         	movb	$114, 2117904(%rip)
  401018: 83 3d 89 44 20 00 00         	cmpl	$0, 2114697(%rip)
  40101f: 0f 84 b1 00 00 00            	je	177 <initialize_target+0x146>
  401025: 83 3d dc 44 20 00 00         	cmpl	$0, 2114780(%rip)
  40102c: 0f 85 a4 00 00 00            	jne	164 <initialize_target+0x146>
  401032: be 00 01 00 00               	movl	$256, %esi
  401037: 48 89 e7                     	movq	%rsp, %rdi
  40103a: e8 91 fd ff ff               	callq	-623 <gethostname@plt>
  40103f: 85 c0                        	testl	%eax, %eax
  401041: 74 25                        	je	37 <initialize_target+0xd8>
  401043: bf 00 2e 40 00               	movl	$4206080, %edi
  401048: e8 03 fc ff ff               	callq	-1021 <puts@plt>
  40104d: bf 08 00 00 00               	movl	$8, %edi
  401052: e8 99 fd ff ff               	callq	-615 <exit@plt>
  401057: 48 89 e6                     	movq	%rsp, %rsi
  40105a: e8 a1 fb ff ff               	callq	-1119 <strcasecmp@plt>
  40105f: 85 c0                        	testl	%eax, %eax
  401061: 74 21                        	je	33 <initialize_target+0xf4>
  401063: 83 c3 01                     	addl	$1, %ebx
  401066: eb 05                        	jmp	5 <initialize_target+0xdd>
  401068: bb 00 00 00 00               	movl	$0, %ebx
  40106d: 48 63 c3                     	movslq	%ebx, %rax
  401070: 48 8b 3c c5 80 51 60 00      	movq	6312320(,%rax,8), %rdi
  401078: 48 85 ff                     	testq	%rdi, %rdi
  40107b: 75 da                        	jne	-38 <initialize_target+0xc7>
  40107d: b8 00 00 00 00               	movl	$0, %eax
  401082: eb 05                        	jmp	5 <initialize_target+0xf9>
  401084: b8 01 00 00 00               	movl	$1, %eax
  401089: 85 c0                        	testl	%eax, %eax
  40108b: 75 17                        	jne	23 <initialize_target+0x114>
  40108d: 48 89 e6                     	movq	%rsp, %rsi
  401090: bf 38 2e 40 00               	movl	$4206136, %edi
  401095: e8 e6 fb ff ff               	callq	-1050 <printf@plt>
  40109a: bf 08 00 00 00               	movl	$8, %edi
  40109f: e8 4c fd ff ff               	callq	-692 <exit@plt>
  4010a4: 48 8d bc 24 00 01 00 00      	leaq	256(%rsp), %rdi
  4010ac: e8 49 19 00 00               	callq	6473 <init_driver>
  4010b1: 85 c0                        	testl	%eax, %eax
  4010b3: 79 21                        	jns	33 <initialize_target+0x146>
  4010b5: 48 8d b4 24 00 01 00 00      	leaq	256(%rsp), %rsi
  4010bd: bf 78 2e 40 00               	movl	$4206200, %edi
  4010c2: b8 00 00 00 00               	movl	$0, %eax
  4010c7: e8 b4 fb ff ff               	callq	-1100 <printf@plt>
  4010cc: bf 08 00 00 00               	movl	$8, %edi
  4010d1: e8 1a fd ff ff               	callq	-742 <exit@plt>
  4010d6: 48 81 c4 08 21 00 00         	addq	$8456, %rsp
  4010dd: 5b                           	popq	%rbx
  4010de: 5d                           	popq	%rbp
  4010df: c3                           	retq

00000000004010e0 main:
  4010e0: 41 56                        	pushq	%r14
  4010e2: 41 55                        	pushq	%r13
  4010e4: 41 54                        	pushq	%r12
  4010e6: 55                           	pushq	%rbp
  4010e7: 53                           	pushq	%rbx
  4010e8: 41 89 fc                     	movl	%edi, %r12d
  4010eb: 48 89 f3                     	movq	%rsi, %rbx
  4010ee: be 21 1e 40 00               	movl	$4202017, %esi
  4010f3: bf 0b 00 00 00               	movl	$11, %edi
  4010f8: e8 e3 fb ff ff               	callq	-1053 <signal@plt>
  4010fd: be d3 1d 40 00               	movl	$4201939, %esi
  401102: bf 07 00 00 00               	movl	$7, %edi
  401107: e8 d4 fb ff ff               	callq	-1068 <signal@plt>
  40110c: be 6f 1e 40 00               	movl	$4202095, %esi
  401111: bf 04 00 00 00               	movl	$4, %edi
  401116: e8 c5 fb ff ff               	callq	-1083 <signal@plt>
  40111b: 83 3d e6 43 20 00 00         	cmpl	$0, 2114534(%rip)
  401122: 74 20                        	je	32 <main+0x64>
  401124: be bd 1e 40 00               	movl	$4202173, %esi
  401129: bf 0e 00 00 00               	movl	$14, %edi
  40112e: e8 ad fb ff ff               	callq	-1107 <signal@plt>
  401133: bf 05 00 00 00               	movl	$5, %edi
  401138: e8 63 fb ff ff               	callq	-1181 <alarm@plt>
  40113d: bd 42 2f 40 00               	movl	$4206402, %ebp
  401142: eb 05                        	jmp	5 <main+0x69>
  401144: bd 3d 2f 40 00               	movl	$4206397, %ebp
  401149: 48 8b 05 70 43 20 00         	movq	2114416(%rip), %rax
  401150: 48 89 05 99 43 20 00         	movq	%rax, 2114457(%rip)
  401157: 41 bd 00 00 00 00            	movl	$0, %r13d
  40115d: 41 be 00 00 00 00            	movl	$0, %r14d
  401163: e9 b9 00 00 00               	jmp	185 <main+0x141>
  401168: 83 e8 61                     	subl	$97, %eax
  40116b: 3c 10                        	cmpb	$16, %al
  40116d: 0f 87 93 00 00 00            	ja	147 <main+0x126>
  401173: 0f b6 c0                     	movzbl	%al, %eax
  401176: ff 24 c5 88 2f 40 00         	jmpq	*4206472(,%rax,8)
  40117d: 48 8b 3b                     	movq	(%rbx), %rdi
  401180: e8 8b fd ff ff               	callq	-629 <usage>
  401185: be ed 32 40 00               	movl	$4207341, %esi
  40118a: 48 8b 3d 37 43 20 00         	movq	2114359(%rip), %rdi
  401191: e8 0a fc ff ff               	callq	-1014 <fopen@plt>
  401196: 48 89 05 53 43 20 00         	movq	%rax, 2114387(%rip)
  40119d: 48 85 c0                     	testq	%rax, %rax
  4011a0: 75 7f                        	jne	127 <main+0x141>
  4011a2: 48 8b 15 1f 43 20 00         	movq	2114335(%rip), %rdx
  4011a9: be 4a 2f 40 00               	movl	$4206410, %esi
  4011ae: 48 8b 3d 1b 43 20 00         	movq	2114331(%rip), %rdi
  4011b5: e8 46 fb ff ff               	callq	-1210 <fprintf@plt>
  4011ba: b8 01 00 00 00               	movl	$1, %eax
  4011bf: e9 d6 00 00 00               	jmp	214 <main+0x1ba>
  4011c4: ba 10 00 00 00               	movl	$16, %edx
  4011c9: be 00 00 00 00               	movl	$0, %esi
  4011ce: 48 8b 3d f3 42 20 00         	movq	2114291(%rip), %rdi
  4011d5: e8 e6 fb ff ff               	callq	-1050 <strtoul@plt>
  4011da: 41 89 c6                     	movl	%eax, %r14d
  4011dd: eb 42                        	jmp	66 <main+0x141>
  4011df: ba 0a 00 00 00               	movl	$10, %edx
  4011e4: be 00 00 00 00               	movl	$0, %esi
  4011e9: 48 8b 3d d8 42 20 00         	movq	2114264(%rip), %rdi
  4011f0: e8 2b fb ff ff               	callq	-1237 <strtol@plt>
  4011f5: 41 89 c5                     	movl	%eax, %r13d
  4011f8: eb 27                        	jmp	39 <main+0x141>
  4011fa: c7 05 a4 42 20 00 00 00 00 00	movl	$0, 2114212(%rip)
  401204: eb 1b                        	jmp	27 <main+0x141>
  401206: 40 0f be f6                  	movsbl	%sil, %esi
  40120a: bf 67 2f 40 00               	movl	$4206439, %edi
  40120f: b8 00 00 00 00               	movl	$0, %eax
  401214: e8 67 fa ff ff               	callq	-1433 <printf@plt>
  401219: 48 8b 3b                     	movq	(%rbx), %rdi
  40121c: e8 ef fc ff ff               	callq	-785 <usage>
  401221: 48 89 ea                     	movq	%rbp, %rdx
  401224: 48 89 de                     	movq	%rbx, %rsi
  401227: 44 89 e7                     	movl	%r12d, %edi
  40122a: e8 81 fb ff ff               	callq	-1151 <getopt@plt>
  40122f: 89 c6                        	movl	%eax, %esi
  401231: 3c ff                        	cmpb	$-1, %al
  401233: 0f 85 2f ff ff ff            	jne	-209 <main+0x88>
  401239: be 01 00 00 00               	movl	$1, %esi
  40123e: 44 89 ef                     	movl	%r13d, %edi
  401241: e8 4a fd ff ff               	callq	-694 <initialize_target>
  401246: 83 3d bb 42 20 00 00         	cmpl	$0, 2114235(%rip)
  40124d: 74 25                        	je	37 <main+0x194>
  40124f: 44 3b 35 aa 42 20 00         	cmpl	2114218(%rip), %r14d
  401256: 74 1c                        	je	28 <main+0x194>
  401258: 44 89 f6                     	movl	%r14d, %esi
  40125b: bf a0 2e 40 00               	movl	$4206240, %edi
  401260: b8 00 00 00 00               	movl	$0, %eax
  401265: e8 16 fa ff ff               	callq	-1514 <printf@plt>
  40126a: b8 00 00 00 00               	movl	$0, %eax
  40126f: e8 67 08 00 00               	callq	2151 <check_fail>
  401274: 8b 35 8a 42 20 00            	movl	2114186(%rip), %esi
  40127a: bf 7a 2f 40 00               	movl	$4206458, %edi
  40127f: b8 00 00 00 00               	movl	$0, %eax
  401284: e8 f7 f9 ff ff               	callq	-1545 <printf@plt>
  401289: 48 8b 3d 10 42 20 00         	movq	2114064(%rip), %rdi
  401290: e8 76 0c 00 00               	callq	3190 <launch>
  401295: b8 00 00 00 00               	movl	$0, %eax
  40129a: 5b                           	popq	%rbx
  40129b: 5d                           	popq	%rbp
  40129c: 41 5c                        	popq	%r12
  40129e: 41 5d                        	popq	%r13
  4012a0: 41 5e                        	popq	%r14
  4012a2: c3                           	retq

00000000004012a3 scramble:
  4012a3: b8 00 00 00 00               	movl	$0, %eax
  4012a8: eb 11                        	jmp	17 <scramble+0x18>
  4012aa: 69 c8 03 eb 00 00            	imull	$60163, %eax, %ecx
  4012b0: 01 f9                        	addl	%edi, %ecx
  4012b2: 89 c2                        	movl	%eax, %edx
  4012b4: 89 4c 94 d0                  	movl	%ecx, -48(%rsp,%rdx,4)
  4012b8: 83 c0 01                     	addl	$1, %eax
  4012bb: 83 f8 09                     	cmpl	$9, %eax
  4012be: 76 ea                        	jbe	-22 <scramble+0x7>
  4012c0: 8b 44 24 f4                  	movl	-12(%rsp), %eax
  4012c4: 69 c0 9a 19 00 00            	imull	$6554, %eax, %eax
  4012ca: 89 44 24 f4                  	movl	%eax, -12(%rsp)
  4012ce: 8b 44 24 e0                  	movl	-32(%rsp), %eax
  4012d2: 69 c0 9f de 00 00            	imull	$56991, %eax, %eax
  4012d8: 89 44 24 e0                  	movl	%eax, -32(%rsp)
  4012dc: 8b 44 24 f4                  	movl	-12(%rsp), %eax
  4012e0: 69 c0 16 c2 00 00            	imull	$49686, %eax, %eax
  4012e6: 89 44 24 f4                  	movl	%eax, -12(%rsp)
  4012ea: 8b 44 24 ec                  	movl	-20(%rsp), %eax
  4012ee: 69 c0 90 84 00 00            	imull	$33936, %eax, %eax
  4012f4: 89 44 24 ec                  	movl	%eax, -20(%rsp)
  4012f8: 8b 44 24 d4                  	movl	-44(%rsp), %eax
  4012fc: 69 c0 32 7f 00 00            	imull	$32562, %eax, %eax
  401302: 89 44 24 d4                  	movl	%eax, -44(%rsp)
  401306: 8b 44 24 f4                  	movl	-12(%rsp), %eax
  40130a: 69 c0 1d 5f 00 00            	imull	$24349, %eax, %eax
  401310: 89 44 24 f4                  	movl	%eax, -12(%rsp)
  401314: 8b 44 24 e4                  	movl	-28(%rsp), %eax
  401318: 69 c0 65 8d 00 00            	imull	$36197, %eax, %eax
  40131e: 89 44 24 e4                  	movl	%eax, -28(%rsp)
  401322: 8b 44 24 e0                  	movl	-32(%rsp), %eax
  401326: 69 c0 51 66 00 00            	imull	$26193, %eax, %eax
  40132c: 89 44 24 e0                  	movl	%eax, -32(%rsp)
  401330: 8b 44 24 d0                  	movl	-48(%rsp), %eax
  401334: 69 c0 ac 47 00 00            	imull	$18348, %eax, %eax
  40133a: 89 44 24 d0                  	movl	%eax, -48(%rsp)
  40133e: 8b 44 24 d8                  	movl	-40(%rsp), %eax
  401342: 69 c0 6a f1 00 00            	imull	$61802, %eax, %eax
  401348: 89 44 24 d8                  	movl	%eax, -40(%rsp)
  40134c: 8b 44 24 d4                  	movl	-44(%rsp), %eax
  401350: 69 c0 18 06 00 00            	imull	$1560, %eax, %eax
  401356: 89 44 24 d4                  	movl	%eax, -44(%rsp)
  40135a: 8b 44 24 e0                  	movl	-32(%rsp), %eax
  40135e: 69 c0 7a 71 00 00            	imull	$29050, %eax, %eax
  401364: 89 44 24 e0                  	movl	%eax, -32(%rsp)
  401368: 8b 44 24 e0                  	movl	-32(%rsp), %eax
  40136c: 69 c0 fa e1 00 00            	imull	$57850, %eax, %eax
  401372: 89 44 24 e0                  	movl	%eax, -32(%rsp)
  401376: 8b 44 24 d8                  	movl	-40(%rsp), %eax
  40137a: 69 c0 71 5f 00 00            	imull	$24433, %eax, %eax
  401380: 89 44 24 d8                  	movl	%eax, -40(%rsp)
  401384: 8b 44 24 d4                  	movl	-44(%rsp), %eax
  401388: 69 c0 3a bc 00 00            	imull	$48186, %eax, %eax
  40138e: 89 44 24 d4                  	movl	%eax, -44(%rsp)
  401392: 8b 44 24 ec                  	movl	-20(%rsp), %eax
  401396: 69 c0 db f6 00 00            	imull	$63195, %eax, %eax
  40139c: 89 44 24 ec                  	movl	%eax, -20(%rsp)
  4013a0: 8b 44 24 e8                  	movl	-24(%rsp), %eax
  4013a4: 69 c0 2b 01 00 00            	imull	$299, %eax, %eax
  4013aa: 89 44 24 e8                  	movl	%eax, -24(%rsp)
  4013ae: 8b 44 24 e4                  	movl	-28(%rsp), %eax
  4013b2: 69 c0 a3 40 00 00            	imull	$16547, %eax, %eax
  4013b8: 89 44 24 e4                  	movl	%eax, -28(%rsp)
  4013bc: 8b 44 24 ec                  	movl	-20(%rsp), %eax
  4013c0: 69 c0 05 13 00 00            	imull	$4869, %eax, %eax
  4013c6: 89 44 24 ec                  	movl	%eax, -20(%rsp)
  4013ca: 8b 44 24 ec                  	movl	-20(%rsp), %eax
  4013ce: 69 c0 10 23 00 00            	imull	$8976, %eax, %eax
  4013d4: 89 44 24 ec                  	movl	%eax, -20(%rsp)
  4013d8: 8b 44 24 d0                  	movl	-48(%rsp), %eax
  4013dc: 69 c0 ee c3 00 00            	imull	$50158, %eax, %eax
  4013e2: 89 44 24 d0                  	movl	%eax, -48(%rsp)
  4013e6: 8b 44 24 f4                  	movl	-12(%rsp), %eax
  4013ea: 69 c0 67 95 00 00            	imull	$38247, %eax, %eax
  4013f0: 89 44 24 f4                  	movl	%eax, -12(%rsp)
  4013f4: 8b 44 24 e8                  	movl	-24(%rsp), %eax
  4013f8: 69 c0 0d 15 00 00            	imull	$5389, %eax, %eax
  4013fe: 89 44 24 e8                  	movl	%eax, -24(%rsp)
  401402: 8b 44 24 d4                  	movl	-44(%rsp), %eax
  401406: 69 c0 bc ba 00 00            	imull	$47804, %eax, %eax
  40140c: 89 44 24 d4                  	movl	%eax, -44(%rsp)
  401410: 8b 44 24 e8                  	movl	-24(%rsp), %eax
  401414: 69 c0 8d 03 00 00            	imull	$909, %eax, %eax
  40141a: 89 44 24 e8                  	movl	%eax, -24(%rsp)
  40141e: 8b 44 24 d4                  	movl	-44(%rsp), %eax
  401422: 69 c0 2f 0c 00 00            	imull	$3119, %eax, %eax
  401428: 89 44 24 d4                  	movl	%eax, -44(%rsp)
  40142c: 8b 44 24 f4                  	movl	-12(%rsp), %eax
  401430: 69 c0 cb d2 00 00            	imull	$53963, %eax, %eax
  401436: 89 44 24 f4                  	movl	%eax, -12(%rsp)
  40143a: 8b 44 24 f4                  	movl	-12(%rsp), %eax
  40143e: 69 c0 d0 ad 00 00            	imull	$44496, %eax, %eax
  401444: 89 44 24 f4                  	movl	%eax, -12(%rsp)
  401448: 8b 44 24 d4                  	movl	-44(%rsp), %eax
  40144c: 69 c0 56 4c 00 00            	imull	$19542, %eax, %eax
  401452: 89 44 24 d4                  	movl	%eax, -44(%rsp)
  401456: 8b 44 24 f0                  	movl	-16(%rsp), %eax
  40145a: 69 c0 9d c0 00 00            	imull	$49309, %eax, %eax
  401460: 89 44 24 f0                  	movl	%eax, -16(%rsp)
  401464: 8b 44 24 d0                  	movl	-48(%rsp), %eax
  401468: 69 c0 c0 22 00 00            	imull	$8896, %eax, %eax
  40146e: 89 44 24 d0                  	movl	%eax, -48(%rsp)
  401472: 8b 44 24 f4                  	movl	-12(%rsp), %eax
  401476: 69 c0 65 de 00 00            	imull	$56933, %eax, %eax
  40147c: 89 44 24 f4                  	movl	%eax, -12(%rsp)
  401480: 8b 44 24 f0                  	movl	-16(%rsp), %eax
  401484: 69 c0 f2 8c 00 00            	imull	$36082, %eax, %eax
  40148a: 89 44 24 f0                  	movl	%eax, -16(%rsp)
  40148e: 8b 44 24 e8                  	movl	-24(%rsp), %eax
  401492: 69 c0 2c e7 00 00            	imull	$59180, %eax, %eax
  401498: 89 44 24 e8                  	movl	%eax, -24(%rsp)
  40149c: 8b 44 24 f4                  	movl	-12(%rsp), %eax
  4014a0: 69 c0 3c e4 00 00            	imull	$58428, %eax, %eax
  4014a6: 89 44 24 f4                  	movl	%eax, -12(%rsp)
  4014aa: 8b 44 24 d0                  	movl	-48(%rsp), %eax
  4014ae: 69 c0 2f 32 00 00            	imull	$12847, %eax, %eax
  4014b4: 89 44 24 d0                  	movl	%eax, -48(%rsp)
  4014b8: 8b 44 24 d8                  	movl	-40(%rsp), %eax
  4014bc: 69 c0 6b 8c 00 00            	imull	$35947, %eax, %eax
  4014c2: 89 44 24 d8                  	movl	%eax, -40(%rsp)
  4014c6: 8b 44 24 f0                  	movl	-16(%rsp), %eax
  4014ca: 69 c0 7e f9 00 00            	imull	$63870, %eax, %eax
  4014d0: 89 44 24 f0                  	movl	%eax, -16(%rsp)
  4014d4: 8b 44 24 e8                  	movl	-24(%rsp), %eax
  4014d8: 69 c0 4f c3 00 00            	imull	$49999, %eax, %eax
  4014de: 89 44 24 e8                  	movl	%eax, -24(%rsp)
  4014e2: 8b 44 24 f0                  	movl	-16(%rsp), %eax
  4014e6: 69 c0 31 fe 00 00            	imull	$65073, %eax, %eax
  4014ec: 89 44 24 f0                  	movl	%eax, -16(%rsp)
  4014f0: 8b 44 24 e8                  	movl	-24(%rsp), %eax
  4014f4: 69 c0 60 60 00 00            	imull	$24672, %eax, %eax
  4014fa: 89 44 24 e8                  	movl	%eax, -24(%rsp)
  4014fe: 8b 44 24 f4                  	movl	-12(%rsp), %eax
  401502: 69 c0 81 d0 00 00            	imull	$53377, %eax, %eax
  401508: 89 44 24 f4                  	movl	%eax, -12(%rsp)
  40150c: 8b 44 24 ec                  	movl	-20(%rsp), %eax
  401510: 69 c0 0a 88 00 00            	imull	$34826, %eax, %eax
  401516: 89 44 24 ec                  	movl	%eax, -20(%rsp)
  40151a: 8b 44 24 d0                  	movl	-48(%rsp), %eax
  40151e: 69 c0 f0 e7 00 00            	imull	$59376, %eax, %eax
  401524: 89 44 24 d0                  	movl	%eax, -48(%rsp)
  401528: 8b 44 24 d8                  	movl	-40(%rsp), %eax
  40152c: 69 c0 92 8b 00 00            	imull	$35730, %eax, %eax
  401532: 89 44 24 d8                  	movl	%eax, -40(%rsp)
  401536: 8b 44 24 e4                  	movl	-28(%rsp), %eax
  40153a: 69 c0 f0 dc 00 00            	imull	$56560, %eax, %eax
  401540: 89 44 24 e4                  	movl	%eax, -28(%rsp)
  401544: 8b 44 24 f0                  	movl	-16(%rsp), %eax
  401548: 69 c0 06 60 00 00            	imull	$24582, %eax, %eax
  40154e: 89 44 24 f0                  	movl	%eax, -16(%rsp)
  401552: 8b 44 24 dc                  	movl	-36(%rsp), %eax
  401556: 69 c0 3e d2 00 00            	imull	$53822, %eax, %eax
  40155c: 89 44 24 dc                  	movl	%eax, -36(%rsp)
  401560: 8b 44 24 d4                  	movl	-44(%rsp), %eax
  401564: 69 c0 5e da 00 00            	imull	$55902, %eax, %eax
  40156a: 89 44 24 d4                  	movl	%eax, -44(%rsp)
  40156e: 8b 44 24 e8                  	movl	-24(%rsp), %eax
  401572: 69 c0 f1 8c 00 00            	imull	$36081, %eax, %eax
  401578: 89 44 24 e8                  	movl	%eax, -24(%rsp)
  40157c: 8b 44 24 e8                  	movl	-24(%rsp), %eax
  401580: 69 c0 a8 c3 00 00            	imull	$50088, %eax, %eax
  401586: 89 44 24 e8                  	movl	%eax, -24(%rsp)
  40158a: 8b 44 24 e4                  	movl	-28(%rsp), %eax
  40158e: 69 c0 c5 66 00 00            	imull	$26309, %eax, %eax
  401594: 89 44 24 e4                  	movl	%eax, -28(%rsp)
  401598: 8b 44 24 f4                  	movl	-12(%rsp), %eax
  40159c: 69 c0 b7 86 00 00            	imull	$34487, %eax, %eax
  4015a2: 89 44 24 f4                  	movl	%eax, -12(%rsp)
  4015a6: 8b 44 24 d0                  	movl	-48(%rsp), %eax
  4015aa: 69 c0 8b f1 00 00            	imull	$61835, %eax, %eax
  4015b0: 89 44 24 d0                  	movl	%eax, -48(%rsp)
  4015b4: 8b 44 24 e0                  	movl	-32(%rsp), %eax
  4015b8: 69 c0 7d 14 00 00            	imull	$5245, %eax, %eax
  4015be: 89 44 24 e0                  	movl	%eax, -32(%rsp)
  4015c2: 8b 44 24 ec                  	movl	-20(%rsp), %eax
  4015c6: 69 c0 e2 10 00 00            	imull	$4322, %eax, %eax
  4015cc: 89 44 24 ec                  	movl	%eax, -20(%rsp)
  4015d0: 8b 44 24 d4                  	movl	-44(%rsp), %eax
  4015d4: 69 c0 1c fa 00 00            	imull	$64028, %eax, %eax
  4015da: 89 44 24 d4                  	movl	%eax, -44(%rsp)
  4015de: 8b 44 24 e8                  	movl	-24(%rsp), %eax
  4015e2: 69 c0 08 a8 00 00            	imull	$43016, %eax, %eax
  4015e8: 89 44 24 e8                  	movl	%eax, -24(%rsp)
  4015ec: 8b 44 24 f0                  	movl	-16(%rsp), %eax
  4015f0: 69 c0 b5 5f 00 00            	imull	$24501, %eax, %eax
  4015f6: 89 44 24 f0                  	movl	%eax, -16(%rsp)
  4015fa: 8b 44 24 d4                  	movl	-44(%rsp), %eax
  4015fe: 69 c0 86 56 00 00            	imull	$22150, %eax, %eax
  401604: 89 44 24 d4                  	movl	%eax, -44(%rsp)
  401608: 8b 44 24 f4                  	movl	-12(%rsp), %eax
  40160c: 69 c0 86 38 00 00            	imull	$14470, %eax, %eax
  401612: 89 44 24 f4                  	movl	%eax, -12(%rsp)
  401616: 8b 44 24 ec                  	movl	-20(%rsp), %eax
  40161a: 69 c0 9a 99 00 00            	imull	$39322, %eax, %eax
  401620: 89 44 24 ec                  	movl	%eax, -20(%rsp)
  401624: 8b 44 24 e4                  	movl	-28(%rsp), %eax
  401628: 69 c0 cd ee 00 00            	imull	$61133, %eax, %eax
  40162e: 89 44 24 e4                  	movl	%eax, -28(%rsp)
  401632: 8b 44 24 ec                  	movl	-20(%rsp), %eax
  401636: 69 c0 86 85 00 00            	imull	$34182, %eax, %eax
  40163c: 89 44 24 ec                  	movl	%eax, -20(%rsp)
  401640: 8b 44 24 dc                  	movl	-36(%rsp), %eax
  401644: 69 c0 44 25 00 00            	imull	$9540, %eax, %eax
  40164a: 89 44 24 dc                  	movl	%eax, -36(%rsp)
  40164e: 8b 44 24 d0                  	movl	-48(%rsp), %eax
  401652: 69 c0 c6 87 00 00            	imull	$34758, %eax, %eax
  401658: 89 44 24 d0                  	movl	%eax, -48(%rsp)
  40165c: 8b 44 24 e4                  	movl	-28(%rsp), %eax
  401660: 69 c0 97 d1 00 00            	imull	$53655, %eax, %eax
  401666: 89 44 24 e4                  	movl	%eax, -28(%rsp)
  40166a: 8b 44 24 d0                  	movl	-48(%rsp), %eax
  40166e: 69 c0 ff 38 00 00            	imull	$14591, %eax, %eax
  401674: 89 44 24 d0                  	movl	%eax, -48(%rsp)
  401678: 8b 44 24 d0                  	movl	-48(%rsp), %eax
  40167c: 69 c0 ce 4e 00 00            	imull	$20174, %eax, %eax
  401682: 89 44 24 d0                  	movl	%eax, -48(%rsp)
  401686: 8b 44 24 d4                  	movl	-44(%rsp), %eax
  40168a: 69 c0 54 a2 00 00            	imull	$41556, %eax, %eax
  401690: 89 44 24 d4                  	movl	%eax, -44(%rsp)
  401694: 8b 44 24 d8                  	movl	-40(%rsp), %eax
  401698: 69 c0 46 1a 00 00            	imull	$6726, %eax, %eax
  40169e: 89 44 24 d8                  	movl	%eax, -40(%rsp)
  4016a2: 8b 44 24 f0                  	movl	-16(%rsp), %eax
  4016a6: 69 c0 28 d8 00 00            	imull	$55336, %eax, %eax
  4016ac: 89 44 24 f0                  	movl	%eax, -16(%rsp)
  4016b0: 8b 44 24 f0                  	movl	-16(%rsp), %eax
  4016b4: 69 c0 9a 94 00 00            	imull	$38042, %eax, %eax
  4016ba: 89 44 24 f0                  	movl	%eax, -16(%rsp)
  4016be: 8b 44 24 e4                  	movl	-28(%rsp), %eax
  4016c2: 69 c0 89 96 00 00            	imull	$38537, %eax, %eax
  4016c8: 89 44 24 e4                  	movl	%eax, -28(%rsp)
  4016cc: 8b 44 24 e4                  	movl	-28(%rsp), %eax
  4016d0: 69 c0 28 10 00 00            	imull	$4136, %eax, %eax
  4016d6: 89 44 24 e4                  	movl	%eax, -28(%rsp)
  4016da: 8b 44 24 ec                  	movl	-20(%rsp), %eax
  4016de: 69 c0 96 df 00 00            	imull	$57238, %eax, %eax
  4016e4: 89 44 24 ec                  	movl	%eax, -20(%rsp)
  4016e8: 8b 44 24 ec                  	movl	-20(%rsp), %eax
  4016ec: 69 c0 86 20 00 00            	imull	$8326, %eax, %eax
  4016f2: 89 44 24 ec                  	movl	%eax, -20(%rsp)
  4016f6: 8b 44 24 ec                  	movl	-20(%rsp), %eax
  4016fa: 69 c0 3c e1 00 00            	imull	$57660, %eax, %eax
  401700: 89 44 24 ec                  	movl	%eax, -20(%rsp)
  401704: 8b 44 24 f0                  	movl	-16(%rsp), %eax
  401708: 69 c0 0a e5 00 00            	imull	$58634, %eax, %eax
  40170e: 89 44 24 f0                  	movl	%eax, -16(%rsp)
  401712: 8b 44 24 d0                  	movl	-48(%rsp), %eax
  401716: 69 c0 7f d8 00 00            	imull	$55423, %eax, %eax
  40171c: 89 44 24 d0                  	movl	%eax, -48(%rsp)
  401720: 8b 44 24 dc                  	movl	-36(%rsp), %eax
  401724: 69 c0 39 79 00 00            	imull	$31033, %eax, %eax
  40172a: 89 44 24 dc                  	movl	%eax, -36(%rsp)
  40172e: 8b 44 24 d8                  	movl	-40(%rsp), %eax
  401732: 69 c0 3a f3 00 00            	imull	$62266, %eax, %eax
  401738: 89 44 24 d8                  	movl	%eax, -40(%rsp)
  40173c: 8b 44 24 d4                  	movl	-44(%rsp), %eax
  401740: 69 c0 d0 4e 00 00            	imull	$20176, %eax, %eax
  401746: 89 44 24 d4                  	movl	%eax, -44(%rsp)
  40174a: 8b 44 24 e8                  	movl	-24(%rsp), %eax
  40174e: 69 c0 1f a3 00 00            	imull	$41759, %eax, %eax
  401754: 89 44 24 e8                  	movl	%eax, -24(%rsp)
  401758: 8b 44 24 ec                  	movl	-20(%rsp), %eax
  40175c: 69 c0 c3 56 00 00            	imull	$22211, %eax, %eax
  401762: 89 44 24 ec                  	movl	%eax, -20(%rsp)
  401766: 8b 44 24 f4                  	movl	-12(%rsp), %eax
  40176a: 69 c0 e9 00 00 00            	imull	$233, %eax, %eax
  401770: 89 44 24 f4                  	movl	%eax, -12(%rsp)
  401774: 8b 44 24 ec                  	movl	-20(%rsp), %eax
  401778: 69 c0 aa f8 00 00            	imull	$63658, %eax, %eax
  40177e: 89 44 24 ec                  	movl	%eax, -20(%rsp)
  401782: ba 00 00 00 00               	movl	$0, %edx
  401787: b8 00 00 00 00               	movl	$0, %eax
  40178c: eb 0b                        	jmp	11 <scramble+0x4f6>
  40178e: 89 d1                        	movl	%edx, %ecx
  401790: 8b 4c 8c d0                  	movl	-48(%rsp,%rcx,4), %ecx
  401794: 01 c8                        	addl	%ecx, %eax
  401796: 83 c2 01                     	addl	$1, %edx
  401799: 83 fa 09                     	cmpl	$9, %edx
  40179c: 76 f0                        	jbe	-16 <scramble+0x4eb>
  40179e: f3 c3                        	rep		retq

00000000004017a0 getbuf:
  4017a0: 48 83 ec 18                  	subq	$24, %rsp
  4017a4: 48 89 e7                     	movq	%rsp, %rdi
  4017a7: e8 5e 03 00 00               	callq	862 <Gets>
  4017ac: b8 01 00 00 00               	movl	$1, %eax
  4017b1: 48 83 c4 18                  	addq	$24, %rsp
  4017b5: c3                           	retq

00000000004017b6 touch1:
  4017b6: 48 83 ec 08                  	subq	$8, %rsp
  4017ba: c7 05 38 3d 20 00 01 00 00 00	movl	$1, 2112824(%rip)
  4017c4: bf 46 31 40 00               	movl	$4206918, %edi
  4017c9: e8 82 f4 ff ff               	callq	-2942 <puts@plt>
  4017ce: bf 01 00 00 00               	movl	$1, %edi
  4017d3: e8 21 05 00 00               	callq	1313 <validate>
  4017d8: bf 00 00 00 00               	movl	$0, %edi
  4017dd: e8 0e f6 ff ff               	callq	-2546 <exit@plt>

00000000004017e2 touch2:
  4017e2: 48 83 ec 08                  	subq	$8, %rsp
  4017e6: 89 fe                        	movl	%edi, %esi
  4017e8: c7 05 0a 3d 20 00 02 00 00 00	movl	$2, 2112778(%rip)
  4017f2: 3b 3d 0c 3d 20 00            	cmpl	2112780(%rip), %edi
  4017f8: 75 1b                        	jne	27 <touch2+0x33>
  4017fa: bf 68 31 40 00               	movl	$4206952, %edi
  4017ff: b8 00 00 00 00               	movl	$0, %eax
  401804: e8 77 f4 ff ff               	callq	-2953 <printf@plt>
  401809: bf 02 00 00 00               	movl	$2, %edi
  40180e: e8 e6 04 00 00               	callq	1254 <validate>
  401813: eb 19                        	jmp	25 <touch2+0x4c>
  401815: bf 90 31 40 00               	movl	$4206992, %edi
  40181a: b8 00 00 00 00               	movl	$0, %eax
  40181f: e8 5c f4 ff ff               	callq	-2980 <printf@plt>
  401824: bf 02 00 00 00               	movl	$2, %edi
  401829: e8 7d 05 00 00               	callq	1405 <fail>
  40182e: bf 00 00 00 00               	movl	$0, %edi
  401833: e8 b8 f5 ff ff               	callq	-2632 <exit@plt>

0000000000401838 hexmatch:
  401838: 41 54                        	pushq	%r12
  40183a: 55                           	pushq	%rbp
  40183b: 53                           	pushq	%rbx
  40183c: 48 83 ec 70                  	subq	$112, %rsp
  401840: 41 89 fc                     	movl	%edi, %r12d
  401843: 48 89 f5                     	movq	%rsi, %rbp
  401846: e8 05 f5 ff ff               	callq	-2811 <random@plt>
  40184b: 48 89 c1                     	movq	%rax, %rcx
  40184e: 48 ba 0b d7 a3 70 3d 0a d7 a3	movabsq	$-6640827866535438581, %rdx
  401858: 48 f7 ea                     	imulq	%rdx
  40185b: 48 8d 04 0a                  	leaq	(%rdx,%rcx), %rax
  40185f: 48 c1 f8 06                  	sarq	$6, %rax
  401863: 48 89 ce                     	movq	%rcx, %rsi
  401866: 48 c1 fe 3f                  	sarq	$63, %rsi
  40186a: 48 29 f0                     	subq	%rsi, %rax
  40186d: 48 8d 04 80                  	leaq	(%rax,%rax,4), %rax
  401871: 48 8d 04 80                  	leaq	(%rax,%rax,4), %rax
  401875: 48 c1 e0 02                  	shlq	$2, %rax
  401879: 48 29 c1                     	subq	%rax, %rcx
  40187c: 48 8d 1c 0c                  	leaq	(%rsp,%rcx), %rbx
  401880: 44 89 e2                     	movl	%r12d, %edx
  401883: be 63 31 40 00               	movl	$4206947, %esi
  401888: 48 89 df                     	movq	%rbx, %rdi
  40188b: b8 00 00 00 00               	movl	$0, %eax
  401890: e8 4b f5 ff ff               	callq	-2741 <sprintf@plt>
  401895: ba 09 00 00 00               	movl	$9, %edx
  40189a: 48 89 de                     	movq	%rbx, %rsi
  40189d: 48 89 ef                     	movq	%rbp, %rdi
  4018a0: e8 8b f3 ff ff               	callq	-3189 <strncmp@plt>
  4018a5: 85 c0                        	testl	%eax, %eax
  4018a7: 0f 94 c0                     	sete	%al
  4018aa: 0f b6 c0                     	movzbl	%al, %eax
  4018ad: 48 83 c4 70                  	addq	$112, %rsp
  4018b1: 5b                           	popq	%rbx
  4018b2: 5d                           	popq	%rbp
  4018b3: 41 5c                        	popq	%r12
  4018b5: c3                           	retq

00000000004018b6 touch3:
  4018b6: 53                           	pushq	%rbx
  4018b7: 48 89 fb                     	movq	%rdi, %rbx
  4018ba: c7 05 38 3c 20 00 03 00 00 00	movl	$3, 2112568(%rip)
  4018c4: 48 89 fe                     	movq	%rdi, %rsi
  4018c7: 8b 3d 37 3c 20 00            	movl	2112567(%rip), %edi
  4018cd: e8 66 ff ff ff               	callq	-154 <hexmatch>
  4018d2: 85 c0                        	testl	%eax, %eax
  4018d4: 74 1e                        	je	30 <touch3+0x3e>
  4018d6: 48 89 de                     	movq	%rbx, %rsi
  4018d9: bf b8 31 40 00               	movl	$4207032, %edi
  4018de: b8 00 00 00 00               	movl	$0, %eax
  4018e3: e8 98 f3 ff ff               	callq	-3176 <printf@plt>
  4018e8: bf 03 00 00 00               	movl	$3, %edi
  4018ed: e8 07 04 00 00               	callq	1031 <validate>
  4018f2: eb 1c                        	jmp	28 <touch3+0x5a>
  4018f4: 48 89 de                     	movq	%rbx, %rsi
  4018f7: bf e0 31 40 00               	movl	$4207072, %edi
  4018fc: b8 00 00 00 00               	movl	$0, %eax
  401901: e8 7a f3 ff ff               	callq	-3206 <printf@plt>
  401906: bf 03 00 00 00               	movl	$3, %edi
  40190b: e8 9b 04 00 00               	callq	1179 <fail>
  401910: bf 00 00 00 00               	movl	$0, %edi
  401915: e8 d6 f4 ff ff               	callq	-2858 <exit@plt>

000000000040191a test:
  40191a: 48 83 ec 08                  	subq	$8, %rsp
  40191e: b8 00 00 00 00               	movl	$0, %eax
  401923: e8 78 fe ff ff               	callq	-392 <getbuf>
  401928: 89 c6                        	movl	%eax, %esi
  40192a: bf 08 32 40 00               	movl	$4207112, %edi
  40192f: b8 00 00 00 00               	movl	$0, %eax
  401934: e8 47 f3 ff ff               	callq	-3257 <printf@plt>
  401939: 48 83 c4 08                  	addq	$8, %rsp
  40193d: c3                           	retq

000000000040193e start_farm:
  40193e: b8 01 00 00 00               	movl	$1, %eax
  401943: c3                           	retq

0000000000401944 addval_306:
  401944: 8d 87 f5 48 89 c7            	leal	-947304203(%rdi), %eax
  40194a: c3                           	retq

000000000040194b setval_237:
  40194b: c7 07 48 89 c7 90            	movl	$2428995912, (%rdi)
  401951: c3                           	retq

0000000000401952 getval_340:
  401952: b8 4a ec 58 c2               	movl	$3260607562, %eax
  401957: c3                           	retq

0000000000401958 addval_472:
  401958: 8d 87 17 cc 58 c3            	leal	-1017590761(%rdi), %eax
  40195e: c3                           	retq

000000000040195f addval_344:
  40195f: 8d 87 48 c9 c7 c3            	leal	-1010316984(%rdi), %eax
  401965: c3                           	retq

0000000000401966 setval_183:
  401966: c7 07 58 90 c7 09            	movl	$164073560, (%rdi)
  40196c: c3                           	retq

000000000040196d getval_468:
  40196d: b8 58 90 90 c3               	movl	$3281031256, %eax
  401972: c3                           	retq

0000000000401973 setval_164:
  401973: c7 07 48 99 c7 c3            	movl	$3284638024, (%rdi)
  401979: c3                           	retq

000000000040197a mid_farm:
  40197a: b8 01 00 00 00               	movl	$1, %eax
  40197f: c3                           	retq

0000000000401980 add_xy:
  401980: 48 8d 04 37                  	leaq	(%rdi,%rsi), %rax
  401984: c3                           	retq

0000000000401985 addval_291:
  401985: 8d 87 89 d1 20 db            	leal	-618606199(%rdi), %eax
  40198b: c3                           	retq

000000000040198c getval_165:
  40198c: b8 89 c2 48 db               	movl	$3678978697, %eax
  401991: c3                           	retq

0000000000401992 getval_408:
  401992: b8 8d ce 20 db               	movl	$3676360333, %eax
  401997: c3                           	retq

0000000000401998 setval_497:
  401998: c7 07 89 ce 84 db            	movl	$3682913929, (%rdi)
  40199e: c3                           	retq

000000000040199f getval_265:
  40199f: b8 48 89 e0 c3               	movl	$3286272328, %eax
  4019a4: c3                           	retq

00000000004019a5 getval_487:
  4019a5: b8 52 89 c2 90               	movl	$2428668242, %eax
  4019aa: c3                           	retq

00000000004019ab setval_286:
  4019ab: c7 07 89 d1 08 c0            	movl	$3221803401, (%rdi)
  4019b1: c3                           	retq

00000000004019b2 addval_118:
  4019b2: 8d 87 09 c2 84 db            	leal	-612056567(%rdi), %eax
  4019b8: c3                           	retq

00000000004019b9 getval_403:
  4019b9: b8 48 89 e0 c7               	movl	$3353381192, %eax
  4019be: c3                           	retq

00000000004019bf getval_304:
  4019bf: b8 48 89 e0 92               	movl	$2464188744, %eax
  4019c4: c3                           	retq

00000000004019c5 addval_212:
  4019c5: 8d 87 88 ce 20 d2            	leal	-769601912(%rdi), %eax
  4019cb: c3                           	retq

00000000004019cc setval_167:
  4019cc: c7 07 a3 48 81 e0            	movl	$3766569123, (%rdi)
  4019d2: c3                           	retq

00000000004019d3 getval_463:
  4019d3: b8 89 ce 94 c9               	movl	$3381972617, %eax
  4019d8: c3                           	retq

00000000004019d9 addval_386:
  4019d9: 8d 87 bf e8 a9 c2            	leal	-1029052225(%rdi), %eax
  4019df: c3                           	retq

00000000004019e0 addval_203:
  4019e0: 8d 87 89 c2 38 c9            	leal	-919027063(%rdi), %eax
  4019e6: c3                           	retq

00000000004019e7 addval_475:
  4019e7: 8d 87 99 d1 84 db            	leal	-612052583(%rdi), %eax
  4019ed: c3                           	retq

00000000004019ee setval_292:
  4019ee: c7 07 48 89 e0 c2            	movl	$3269495112, (%rdi)
  4019f4: c3                           	retq

00000000004019f5 addval_481:
  4019f5: 8d 87 89 ce 18 c0            	leal	-1072116087(%rdi), %eax
  4019fb: c3                           	retq

00000000004019fc getval_464:
  4019fc: b8 09 d1 38 c0               	movl	$3224949001, %eax
  401a01: c3                           	retq

0000000000401a02 addval_492:
  401a02: 8d 87 89 c2 00 db            	leal	-620707191(%rdi), %eax
  401a08: c3                           	retq

0000000000401a09 setval_153:
  401a09: c7 07 89 ce 20 c0            	movl	$3223375497, (%rdi)
  401a0f: c3                           	retq

0000000000401a10 addval_295:
  401a10: 8d 87 89 c2 94 90            	leal	-1869299063(%rdi), %eax
  401a16: c3                           	retq

0000000000401a17 setval_387:
  401a17: c7 07 89 ce 48 c0            	movl	$3225996937, (%rdi)
  401a1d: c3                           	retq

0000000000401a1e addval_471:
  401a1e: 8d 87 89 d1 18 c9            	leal	-921120375(%rdi), %eax
  401a24: c3                           	retq

0000000000401a25 setval_103:
  401a25: c7 07 8b ce 08 d2            	movl	$3523792523, (%rdi)
  401a2b: c3                           	retq

0000000000401a2c addval_419:
  401a2c: 8d 87 48 81 e0 c3            	leal	-1008697016(%rdi), %eax
  401a32: c3                           	retq

0000000000401a33 getval_195:
  401a33: b8 8d d1 90 90               	movl	$2425409933, %eax
  401a38: c3                           	retq

0000000000401a39 setval_181:
  401a39: c7 07 89 d1 92 90            	movl	$2425541001, (%rdi)
  401a3f: c3                           	retq

0000000000401a40 getval_107:
  401a40: b8 89 d1 78 c9               	movl	$3380138377, %eax
  401a45: c3                           	retq

0000000000401a46 addval_342:
  401a46: 8d 87 48 89 e0 c3            	leal	-1008694968(%rdi), %eax
  401a4c: c3                           	retq

0000000000401a4d setval_318:
  401a4d: c7 07 89 c2 48 c9            	movl	$3376988809, (%rdi)
  401a53: c3                           	retq

0000000000401a54 setval_333:
  401a54: c7 07 48 81 e0 c3            	movl	$3286270280, (%rdi)
  401a5a: c3                           	retq

0000000000401a5b end_farm:
  401a5b: b8 01 00 00 00               	movl	$1, %eax
  401a60: c3                           	retq
  401a61: 66 2e 0f 1f 84 00 00 00 00 00	nopw	%cs:(%rax,%rax)
  401a6b: 0f 1f 44 00 00               	nopl	(%rax,%rax)

0000000000401a70 save_char:
  401a70: 8b 05 ae 46 20 00            	movl	2115246(%rip), %eax
  401a76: 3d ff 03 00 00               	cmpl	$1023, %eax
  401a7b: 7f 49                        	jg	73 <save_char+0x56>
  401a7d: 8d 14 40                     	leal	(%rax,%rax,2), %edx
  401a80: 89 f9                        	movl	%edi, %ecx
  401a82: c0 e9 04                     	shrb	$4, %cl
  401a85: 83 e1 0f                     	andl	$15, %ecx
  401a88: 0f b6 b1 30 35 40 00         	movzbl	4207920(%rcx), %esi
  401a8f: 48 63 ca                     	movslq	%edx, %rcx
  401a92: 40 88 b1 20 55 60 00         	movb	%sil, 6313248(%rcx)
  401a99: 8d 4a 01                     	leal	1(%rdx), %ecx
  401a9c: 83 e7 0f                     	andl	$15, %edi
  401a9f: 0f b6 b7 30 35 40 00         	movzbl	4207920(%rdi), %esi
  401aa6: 48 63 c9                     	movslq	%ecx, %rcx
  401aa9: 40 88 b1 20 55 60 00         	movb	%sil, 6313248(%rcx)
  401ab0: 83 c2 02                     	addl	$2, %edx
  401ab3: 48 63 d2                     	movslq	%edx, %rdx
  401ab6: c6 82 20 55 60 00 20         	movb	$32, 6313248(%rdx)
  401abd: 83 c0 01                     	addl	$1, %eax
  401ac0: 89 05 5e 46 20 00            	movl	%eax, 2115166(%rip)
  401ac6: f3 c3                        	rep		retq

0000000000401ac8 save_term:
  401ac8: 8b 05 56 46 20 00            	movl	2115158(%rip), %eax
  401ace: 8d 04 40                     	leal	(%rax,%rax,2), %eax
  401ad1: 48 98                        	cltq
  401ad3: c6 80 20 55 60 00 00         	movb	$0, 6313248(%rax)
  401ada: c3                           	retq

0000000000401adb check_fail:
  401adb: 48 83 ec 08                  	subq	$8, %rsp
  401adf: 0f be 35 42 46 20 00         	movsbl	2115138(%rip), %esi
  401ae6: b9 20 55 60 00               	movl	$6313248, %ecx
  401aeb: 8b 15 07 3a 20 00            	movl	2112007(%rip), %edx
  401af1: bf 2b 32 40 00               	movl	$4207147, %edi
  401af6: b8 00 00 00 00               	movl	$0, %eax
  401afb: e8 80 f1 ff ff               	callq	-3712 <printf@plt>
  401b00: bf 01 00 00 00               	movl	$1, %edi
  401b05: e8 e6 f2 ff ff               	callq	-3354 <exit@plt>

0000000000401b0a Gets:
  401b0a: 41 54                        	pushq	%r12
  401b0c: 55                           	pushq	%rbp
  401b0d: 53                           	pushq	%rbx
  401b0e: 49 89 fc                     	movq	%rdi, %r12
  401b11: c7 05 09 46 20 00 00 00 00 00	movl	$0, 2115081(%rip)
  401b1b: 48 89 fb                     	movq	%rdi, %rbx
  401b1e: eb 11                        	jmp	17 <Gets+0x27>
  401b20: 48 8d 6b 01                  	leaq	1(%rbx), %rbp
  401b24: 88 03                        	movb	%al, (%rbx)
  401b26: 0f b6 f8                     	movzbl	%al, %edi
  401b29: e8 42 ff ff ff               	callq	-190 <save_char>
  401b2e: 48 89 eb                     	movq	%rbp, %rbx
  401b31: 48 8b 3d b8 39 20 00         	movq	2111928(%rip), %rdi
  401b38: e8 23 f2 ff ff               	callq	-3549 <_IO_getc@plt>
  401b3d: 83 f8 ff                     	cmpl	$-1, %eax
  401b40: 74 05                        	je	5 <Gets+0x3d>
  401b42: 83 f8 0a                     	cmpl	$10, %eax
  401b45: 75 d9                        	jne	-39 <Gets+0x16>
  401b47: c6 03 00                     	movb	$0, (%rbx)
  401b4a: b8 00 00 00 00               	movl	$0, %eax
  401b4f: e8 74 ff ff ff               	callq	-140 <save_term>
  401b54: 4c 89 e0                     	movq	%r12, %rax
  401b57: 5b                           	popq	%rbx
  401b58: 5d                           	popq	%rbp
  401b59: 41 5c                        	popq	%r12
  401b5b: c3                           	retq

0000000000401b5c notify_server:
  401b5c: 83 3d a5 39 20 00 00         	cmpl	$0, 2111909(%rip)
  401b63: 0f 85 8e 01 00 00            	jne	398 <notify_server+0x19b>
  401b69: 53                           	pushq	%rbx
  401b6a: 48 81 ec 10 40 00 00         	subq	$16400, %rsp
  401b71: 89 fb                        	movl	%edi, %ebx
  401b73: 8b 05 ab 45 20 00            	movl	2114987(%rip), %eax
  401b79: 83 c0 64                     	addl	$100, %eax
  401b7c: 3d 00 20 00 00               	cmpl	$8192, %eax
  401b81: 7e 19                        	jle	25 <notify_server+0x40>
  401b83: bf 60 33 40 00               	movl	$4207456, %edi
  401b88: b8 00 00 00 00               	movl	$0, %eax
  401b8d: e8 ee f0 ff ff               	callq	-3858 <printf@plt>
  401b92: bf 01 00 00 00               	movl	$1, %edi
  401b97: e8 54 f2 ff ff               	callq	-3500 <exit@plt>
  401b9c: 44 0f be 0d 84 45 20 00      	movsbl	2114948(%rip), %r9d
  401ba4: 83 3d fd 38 20 00 00         	cmpl	$0, 2111741(%rip)
  401bab: 74 09                        	je	9 <notify_server+0x5a>
  401bad: 44 8b 05 4c 39 20 00         	movl	2111820(%rip), %r8d
  401bb4: eb 06                        	jmp	6 <notify_server+0x60>
  401bb6: 41 b8 ff ff ff ff            	movl	$4294967295, %r8d
  401bbc: 85 db                        	testl	%ebx, %ebx
  401bbe: 74 07                        	je	7 <notify_server+0x6b>
  401bc0: b9 41 32 40 00               	movl	$4207169, %ecx
  401bc5: eb 05                        	jmp	5 <notify_server+0x70>
  401bc7: b9 46 32 40 00               	movl	$4207174, %ecx
  401bcc: 48 c7 44 24 08 20 55 60 00   	movq	$6313248, 8(%rsp)
  401bd5: 89 34 24                     	movl	%esi, (%rsp)
  401bd8: 8b 15 8a 35 20 00            	movl	2110858(%rip), %edx
  401bde: be 4b 32 40 00               	movl	$4207179, %esi
  401be3: 48 8d bc 24 10 20 00 00      	leaq	8208(%rsp), %rdi
  401beb: b8 00 00 00 00               	movl	$0, %eax
  401bf0: e8 eb f1 ff ff               	callq	-3605 <sprintf@plt>
  401bf5: 83 3d ac 38 20 00 00         	cmpl	$0, 2111660(%rip)
  401bfc: 74 78                        	je	120 <notify_server+0x11a>
  401bfe: 85 db                        	testl	%ebx, %ebx
  401c00: 74 68                        	je	104 <notify_server+0x10e>
  401c02: 4c 8d 4c 24 10               	leaq	16(%rsp), %r9
  401c07: 41 b8 00 00 00 00            	movl	$0, %r8d
  401c0d: 48 8d 8c 24 10 20 00 00      	leaq	8208(%rsp), %rcx
  401c15: 48 8b 15 54 35 20 00         	movq	2110804(%rip), %rdx
  401c1c: 48 8b 35 55 35 20 00         	movq	2110805(%rip), %rsi
  401c23: 48 8b 3d 36 35 20 00         	movq	2110774(%rip), %rdi
  401c2a: e8 94 0f 00 00               	callq	3988 <driver_post>
  401c2f: 85 c0                        	testl	%eax, %eax
  401c31: 79 1e                        	jns	30 <notify_server+0xf5>
  401c33: 48 8d 74 24 10               	leaq	16(%rsp), %rsi
  401c38: bf 67 32 40 00               	movl	$4207207, %edi
  401c3d: b8 00 00 00 00               	movl	$0, %eax
  401c42: e8 39 f0 ff ff               	callq	-4039 <printf@plt>
  401c47: bf 01 00 00 00               	movl	$1, %edi
  401c4c: e8 9f f1 ff ff               	callq	-3681 <exit@plt>
  401c51: bf 90 33 40 00               	movl	$4207504, %edi
  401c56: e8 f5 ef ff ff               	callq	-4107 <puts@plt>
  401c5b: bf 73 32 40 00               	movl	$4207219, %edi
  401c60: e8 eb ef ff ff               	callq	-4117 <puts@plt>
  401c65: e9 85 00 00 00               	jmp	133 <notify_server+0x193>
  401c6a: bf 7d 32 40 00               	movl	$4207229, %edi
  401c6f: e8 dc ef ff ff               	callq	-4132 <puts@plt>
  401c74: eb 79                        	jmp	121 <notify_server+0x193>
  401c76: 85 db                        	testl	%ebx, %ebx
  401c78: 74 08                        	je	8 <notify_server+0x126>
  401c7a: be 41 32 40 00               	movl	$4207169, %esi
  401c7f: 90                           	nop
  401c80: eb 05                        	jmp	5 <notify_server+0x12b>
  401c82: be 46 32 40 00               	movl	$4207174, %esi
  401c87: bf c8 33 40 00               	movl	$4207560, %edi
  401c8c: b8 00 00 00 00               	movl	$0, %eax
  401c91: e8 ea ef ff ff               	callq	-4118 <printf@plt>
  401c96: 48 8b 35 c3 34 20 00         	movq	2110659(%rip), %rsi
  401c9d: bf 84 32 40 00               	movl	$4207236, %edi
  401ca2: b8 00 00 00 00               	movl	$0, %eax
  401ca7: e8 d4 ef ff ff               	callq	-4140 <printf@plt>
  401cac: 48 8b 35 c5 34 20 00         	movq	2110661(%rip), %rsi
  401cb3: bf 91 32 40 00               	movl	$4207249, %edi
  401cb8: b8 00 00 00 00               	movl	$0, %eax
  401cbd: e8 be ef ff ff               	callq	-4162 <printf@plt>
  401cc2: 48 8b 35 a7 34 20 00         	movq	2110631(%rip), %rsi
  401cc9: bf 9d 32 40 00               	movl	$4207261, %edi
  401cce: b8 00 00 00 00               	movl	$0, %eax
  401cd3: e8 a8 ef ff ff               	callq	-4184 <printf@plt>
  401cd8: 48 8d b4 24 10 20 00 00      	leaq	8208(%rsp), %rsi
  401ce0: bf a6 32 40 00               	movl	$4207270, %edi
  401ce5: b8 00 00 00 00               	movl	$0, %eax
  401cea: e8 91 ef ff ff               	callq	-4207 <printf@plt>
  401cef: 48 81 c4 10 40 00 00         	addq	$16400, %rsp
  401cf6: 5b                           	popq	%rbx
  401cf7: f3 c3                        	rep		retq

0000000000401cf9 validate:
  401cf9: 53                           	pushq	%rbx
  401cfa: 89 fb                        	movl	%edi, %ebx
  401cfc: 83 3d 05 38 20 00 00         	cmpl	$0, 2111493(%rip)
  401d03: 74 60                        	je	96 <validate+0x6c>
  401d05: 39 3d f1 37 20 00            	cmpl	%edi, 2111473(%rip)
  401d0b: 74 14                        	je	20 <validate+0x28>
  401d0d: bf b2 32 40 00               	movl	$4207282, %edi
  401d12: e8 39 ef ff ff               	callq	-4295 <puts@plt>
  401d17: b8 00 00 00 00               	movl	$0, %eax
  401d1c: e8 ba fd ff ff               	callq	-582 <check_fail>
  401d21: 8b 35 d1 37 20 00            	movl	2111441(%rip), %esi
  401d27: 39 fe                        	cmpl	%edi, %esi
  401d29: 74 1b                        	je	27 <validate+0x4d>
  401d2b: 89 fa                        	movl	%edi, %edx
  401d2d: bf f0 33 40 00               	movl	$4207600, %edi
  401d32: b8 00 00 00 00               	movl	$0, %eax
  401d37: e8 44 ef ff ff               	callq	-4284 <printf@plt>
  401d3c: b8 00 00 00 00               	movl	$0, %eax
  401d41: e8 95 fd ff ff               	callq	-619 <check_fail>
  401d46: 0f be 35 db 43 20 00         	movsbl	2114523(%rip), %esi
  401d4d: b9 20 55 60 00               	movl	$6313248, %ecx
  401d52: 89 fa                        	movl	%edi, %edx
  401d54: bf d0 32 40 00               	movl	$4207312, %edi
  401d59: b8 00 00 00 00               	movl	$0, %eax
  401d5e: e8 1d ef ff ff               	callq	-4323 <printf@plt>
  401d63: eb 44                        	jmp	68 <validate+0xb0>
  401d65: 39 3d 91 37 20 00            	cmpl	%edi, 2111377(%rip)
  401d6b: 74 18                        	je	24 <validate+0x8c>
  401d6d: bf b2 32 40 00               	movl	$4207282, %edi
  401d72: e8 d9 ee ff ff               	callq	-4391 <puts@plt>
  401d77: 89 de                        	movl	%ebx, %esi
  401d79: bf 00 00 00 00               	movl	$0, %edi
  401d7e: e8 d9 fd ff ff               	callq	-551 <notify_server>
  401d83: eb 24                        	jmp	36 <validate+0xb0>
  401d85: 0f be 15 9c 43 20 00         	movsbl	2114460(%rip), %edx
  401d8c: 89 fe                        	movl	%edi, %esi
  401d8e: bf 18 34 40 00               	movl	$4207640, %edi
  401d93: b8 00 00 00 00               	movl	$0, %eax
  401d98: e8 e3 ee ff ff               	callq	-4381 <printf@plt>
  401d9d: 89 de                        	movl	%ebx, %esi
  401d9f: bf 01 00 00 00               	movl	$1, %edi
  401da4: e8 b3 fd ff ff               	callq	-589 <notify_server>
  401da9: 5b                           	popq	%rbx
  401daa: c3                           	retq

0000000000401dab fail:
  401dab: 48 83 ec 08                  	subq	$8, %rsp
  401daf: 83 3d 52 37 20 00 00         	cmpl	$0, 2111314(%rip)
  401db6: 74 0a                        	je	10 <fail+0x17>
  401db8: b8 00 00 00 00               	movl	$0, %eax
  401dbd: e8 19 fd ff ff               	callq	-743 <check_fail>
  401dc2: 89 fe                        	movl	%edi, %esi
  401dc4: bf 00 00 00 00               	movl	$0, %edi
  401dc9: e8 8e fd ff ff               	callq	-626 <notify_server>
  401dce: 48 83 c4 08                  	addq	$8, %rsp
  401dd2: c3                           	retq

0000000000401dd3 bushandler:
  401dd3: 48 83 ec 08                  	subq	$8, %rsp
  401dd7: 83 3d 2a 37 20 00 00         	cmpl	$0, 2111274(%rip)
  401dde: 74 14                        	je	20 <bushandler+0x21>
  401de0: bf e5 32 40 00               	movl	$4207333, %edi
  401de5: e8 66 ee ff ff               	callq	-4506 <puts@plt>
  401dea: b8 00 00 00 00               	movl	$0, %eax
  401def: e8 e7 fc ff ff               	callq	-793 <check_fail>
  401df4: bf 50 34 40 00               	movl	$4207696, %edi
  401df9: e8 52 ee ff ff               	callq	-4526 <puts@plt>
  401dfe: bf ef 32 40 00               	movl	$4207343, %edi
  401e03: e8 48 ee ff ff               	callq	-4536 <puts@plt>
  401e08: be 00 00 00 00               	movl	$0, %esi
  401e0d: bf 00 00 00 00               	movl	$0, %edi
  401e12: e8 45 fd ff ff               	callq	-699 <notify_server>
  401e17: bf 01 00 00 00               	movl	$1, %edi
  401e1c: e8 cf ef ff ff               	callq	-4145 <exit@plt>

0000000000401e21 seghandler:
  401e21: 48 83 ec 08                  	subq	$8, %rsp
  401e25: 83 3d dc 36 20 00 00         	cmpl	$0, 2111196(%rip)
  401e2c: 74 14                        	je	20 <seghandler+0x21>
  401e2e: bf 05 33 40 00               	movl	$4207365, %edi
  401e33: e8 18 ee ff ff               	callq	-4584 <puts@plt>
  401e38: b8 00 00 00 00               	movl	$0, %eax
  401e3d: e8 99 fc ff ff               	callq	-871 <check_fail>
  401e42: bf 70 34 40 00               	movl	$4207728, %edi
  401e47: e8 04 ee ff ff               	callq	-4604 <puts@plt>
  401e4c: bf ef 32 40 00               	movl	$4207343, %edi
  401e51: e8 fa ed ff ff               	callq	-4614 <puts@plt>
  401e56: be 00 00 00 00               	movl	$0, %esi
  401e5b: bf 00 00 00 00               	movl	$0, %edi
  401e60: e8 f7 fc ff ff               	callq	-777 <notify_server>
  401e65: bf 01 00 00 00               	movl	$1, %edi
  401e6a: e8 81 ef ff ff               	callq	-4223 <exit@plt>

0000000000401e6f illegalhandler:
  401e6f: 48 83 ec 08                  	subq	$8, %rsp
  401e73: 83 3d 8e 36 20 00 00         	cmpl	$0, 2111118(%rip)
  401e7a: 74 14                        	je	20 <illegalhandler+0x21>
  401e7c: bf 18 33 40 00               	movl	$4207384, %edi
  401e81: e8 ca ed ff ff               	callq	-4662 <puts@plt>
  401e86: b8 00 00 00 00               	movl	$0, %eax
  401e8b: e8 4b fc ff ff               	callq	-949 <check_fail>
  401e90: bf 98 34 40 00               	movl	$4207768, %edi
  401e95: e8 b6 ed ff ff               	callq	-4682 <puts@plt>
  401e9a: bf ef 32 40 00               	movl	$4207343, %edi
  401e9f: e8 ac ed ff ff               	callq	-4692 <puts@plt>
  401ea4: be 00 00 00 00               	movl	$0, %esi
  401ea9: bf 00 00 00 00               	movl	$0, %edi
  401eae: e8 a9 fc ff ff               	callq	-855 <notify_server>
  401eb3: bf 01 00 00 00               	movl	$1, %edi
  401eb8: e8 33 ef ff ff               	callq	-4301 <exit@plt>

0000000000401ebd sigalrmhandler:
  401ebd: 48 83 ec 08                  	subq	$8, %rsp
  401ec1: 83 3d 40 36 20 00 00         	cmpl	$0, 2111040(%rip)
  401ec8: 74 14                        	je	20 <sigalrmhandler+0x21>
  401eca: bf 2c 33 40 00               	movl	$4207404, %edi
  401ecf: e8 7c ed ff ff               	callq	-4740 <puts@plt>
  401ed4: b8 00 00 00 00               	movl	$0, %eax
  401ed9: e8 fd fb ff ff               	callq	-1027 <check_fail>
  401ede: be 05 00 00 00               	movl	$5, %esi
  401ee3: bf c8 34 40 00               	movl	$4207816, %edi
  401ee8: b8 00 00 00 00               	movl	$0, %eax
  401eed: e8 8e ed ff ff               	callq	-4722 <printf@plt>
  401ef2: be 00 00 00 00               	movl	$0, %esi
  401ef7: bf 00 00 00 00               	movl	$0, %edi
  401efc: e8 5b fc ff ff               	callq	-933 <notify_server>
  401f01: bf 01 00 00 00               	movl	$1, %edi
  401f06: e8 e5 ee ff ff               	callq	-4379 <exit@plt>

0000000000401f0b launch:
  401f0b: 55                           	pushq	%rbp
  401f0c: 48 89 e5                     	movq	%rsp, %rbp
  401f0f: 48 89 fa                     	movq	%rdi, %rdx
  401f12: 48 8d 47 1e                  	leaq	30(%rdi), %rax
  401f16: 48 83 e0 f0                  	andq	$-16, %rax
  401f1a: 48 29 c4                     	subq	%rax, %rsp
  401f1d: 48 8d 7c 24 0f               	leaq	15(%rsp), %rdi
  401f22: 48 83 e7 f0                  	andq	$-16, %rdi
  401f26: be f4 00 00 00               	movl	$244, %esi
  401f2b: e8 60 ed ff ff               	callq	-4768 <memset@plt>
  401f30: 48 8b 05 89 35 20 00         	movq	2110857(%rip), %rax
  401f37: 48 39 05 b2 35 20 00         	cmpq	%rax, 2110898(%rip)
  401f3e: 75 0f                        	jne	15 <launch+0x44>
  401f40: bf 34 33 40 00               	movl	$4207412, %edi
  401f45: b8 00 00 00 00               	movl	$0, %eax
  401f4a: e8 31 ed ff ff               	callq	-4815 <printf@plt>
  401f4f: c7 05 a3 35 20 00 00 00 00 00	movl	$0, 2110883(%rip)
  401f59: b8 00 00 00 00               	movl	$0, %eax
  401f5e: e8 b7 f9 ff ff               	callq	-1609 <test>
  401f63: 83 3d 9e 35 20 00 00         	cmpl	$0, 2110878(%rip)
  401f6a: 74 14                        	je	20 <launch+0x75>
  401f6c: bf 41 33 40 00               	movl	$4207425, %edi
  401f71: e8 da ec ff ff               	callq	-4902 <puts@plt>
  401f76: b8 00 00 00 00               	movl	$0, %eax
  401f7b: e8 5b fb ff ff               	callq	-1189 <check_fail>
  401f80: bf 4c 33 40 00               	movl	$4207436, %edi
  401f85: e8 c6 ec ff ff               	callq	-4922 <puts@plt>
  401f8a: c9                           	leave
  401f8b: c3                           	retq

0000000000401f8c stable_launch:
  401f8c: 53                           	pushq	%rbx
  401f8d: 48 89 3d 54 35 20 00         	movq	%rdi, 2110804(%rip)
  401f94: 41 b9 00 00 00 00            	movl	$0, %r9d
  401f9a: 41 b8 00 00 00 00            	movl	$0, %r8d
  401fa0: b9 32 01 00 00               	movl	$306, %ecx
  401fa5: ba 07 00 00 00               	movl	$7, %edx
  401faa: be 00 00 10 00               	movl	$1048576, %esi
  401faf: bf 00 60 58 55               	movl	$1431855104, %edi
  401fb4: e8 b7 ec ff ff               	callq	-4937 <mmap@plt>
  401fb9: 48 89 c3                     	movq	%rax, %rbx
  401fbc: 48 3d 00 60 58 55            	cmpq	$1431855104, %rax
  401fc2: 74 32                        	je	50 <stable_launch+0x6a>
  401fc4: be 00 00 10 00               	movl	$1048576, %esi
  401fc9: 48 89 c7                     	movq	%rax, %rdi
  401fcc: e8 af ed ff ff               	callq	-4689 <munmap@plt>
  401fd1: ba 00 60 58 55               	movl	$1431855104, %edx
  401fd6: be 00 35 40 00               	movl	$4207872, %esi
  401fdb: 48 8b 3d ee 34 20 00         	movq	2110702(%rip), %rdi
  401fe2: b8 00 00 00 00               	movl	$0, %eax
  401fe7: e8 14 ed ff ff               	callq	-4844 <fprintf@plt>
  401fec: bf 01 00 00 00               	movl	$1, %edi
  401ff1: e8 fa ed ff ff               	callq	-4614 <exit@plt>
  401ff6: 48 8d 90 f8 ff 0f 00         	leaq	1048568(%rax), %rdx
  401ffd: 48 89 15 2c 41 20 00         	movq	%rdx, 2113836(%rip)
  402004: 48 89 e0                     	movq	%rsp, %rax
  402007: 48 89 d4                     	movq	%rdx, %rsp
  40200a: 48 89 c2                     	movq	%rax, %rdx
  40200d: 48 89 15 cc 34 20 00         	movq	%rdx, 2110668(%rip)
  402014: 48 8b 3d cd 34 20 00         	movq	2110669(%rip), %rdi
  40201b: e8 eb fe ff ff               	callq	-277 <launch>
  402020: 48 8b 05 b9 34 20 00         	movq	2110649(%rip), %rax
  402027: 48 89 c4                     	movq	%rax, %rsp
  40202a: be 00 00 10 00               	movl	$1048576, %esi
  40202f: 48 89 df                     	movq	%rbx, %rdi
  402032: e8 49 ed ff ff               	callq	-4791 <munmap@plt>
  402037: 5b                           	popq	%rbx
  402038: c3                           	retq
  402039: 0f 1f 80 00 00 00 00         	nopl	(%rax)

0000000000402040 rio_readinitb:
  402040: 89 37                        	movl	%esi, (%rdi)
  402042: c7 47 04 00 00 00 00         	movl	$0, 4(%rdi)
  402049: 48 8d 47 10                  	leaq	16(%rdi), %rax
  40204d: 48 89 47 08                  	movq	%rax, 8(%rdi)
  402051: c3                           	retq

0000000000402052 sigalrm_handler:
  402052: 48 83 ec 08                  	subq	$8, %rsp
  402056: ba 00 00 00 00               	movl	$0, %edx
  40205b: be 40 35 40 00               	movl	$4207936, %esi
  402060: 48 8b 3d 69 34 20 00         	movq	2110569(%rip), %rdi
  402067: b8 00 00 00 00               	movl	$0, %eax
  40206c: e8 8f ec ff ff               	callq	-4977 <fprintf@plt>
  402071: bf 01 00 00 00               	movl	$1, %edi
  402076: e8 75 ed ff ff               	callq	-4747 <exit@plt>

000000000040207b urlencode:
  40207b: 41 54                        	pushq	%r12
  40207d: 55                           	pushq	%rbp
  40207e: 53                           	pushq	%rbx
  40207f: 48 83 ec 10                  	subq	$16, %rsp
  402083: 48 89 fb                     	movq	%rdi, %rbx
  402086: 48 89 f5                     	movq	%rsi, %rbp
  402089: b8 00 00 00 00               	movl	$0, %eax
  40208e: 48 c7 c1 ff ff ff ff         	movq	$-1, %rcx
  402095: f2 ae                        	repne		scasb	%es:(%rdi), %al
  402097: 48 f7 d1                     	notq	%rcx
  40209a: 8d 41 ff                     	leal	-1(%rcx), %eax
  40209d: e9 93 00 00 00               	jmp	147 <urlencode+0xba>
  4020a2: 0f b6 13                     	movzbl	(%rbx), %edx
  4020a5: 80 fa 2a                     	cmpb	$42, %dl
  4020a8: 0f 94 c1                     	sete	%cl
  4020ab: 80 fa 2d                     	cmpb	$45, %dl
  4020ae: 0f 94 c0                     	sete	%al
  4020b1: 08 c1                        	orb	%al, %cl
  4020b3: 75 1f                        	jne	31 <urlencode+0x59>
  4020b5: 80 fa 2e                     	cmpb	$46, %dl
  4020b8: 74 1a                        	je	26 <urlencode+0x59>
  4020ba: 80 fa 5f                     	cmpb	$95, %dl
  4020bd: 74 15                        	je	21 <urlencode+0x59>
  4020bf: 8d 42 d0                     	leal	-48(%rdx), %eax
  4020c2: 3c 09                        	cmpb	$9, %al
  4020c4: 76 0e                        	jbe	14 <urlencode+0x59>
  4020c6: 8d 42 bf                     	leal	-65(%rdx), %eax
  4020c9: 3c 19                        	cmpb	$25, %al
  4020cb: 76 07                        	jbe	7 <urlencode+0x59>
  4020cd: 8d 42 9f                     	leal	-97(%rdx), %eax
  4020d0: 3c 19                        	cmpb	$25, %al
  4020d2: 77 09                        	ja	9 <urlencode+0x62>
  4020d4: 88 55 00                     	movb	%dl, (%rbp)
  4020d7: 48 8d 6d 01                  	leaq	1(%rbp), %rbp
  4020db: eb 51                        	jmp	81 <urlencode+0xb3>
  4020dd: 80 fa 20                     	cmpb	$32, %dl
  4020e0: 75 0a                        	jne	10 <urlencode+0x71>
  4020e2: c6 45 00 2b                  	movb	$43, (%rbp)
  4020e6: 48 8d 6d 01                  	leaq	1(%rbp), %rbp
  4020ea: eb 42                        	jmp	66 <urlencode+0xb3>
  4020ec: 8d 42 e0                     	leal	-32(%rdx), %eax
  4020ef: 3c 5f                        	cmpb	$95, %al
  4020f1: 0f 96 c1                     	setbe	%cl
  4020f4: 80 fa 09                     	cmpb	$9, %dl
  4020f7: 0f 94 c0                     	sete	%al
  4020fa: 08 c1                        	orb	%al, %cl
  4020fc: 74 45                        	je	69 <urlencode+0xc8>
  4020fe: 0f b6 d2                     	movzbl	%dl, %edx
  402101: be d8 35 40 00               	movl	$4208088, %esi
  402106: 48 89 e7                     	movq	%rsp, %rdi
  402109: b8 00 00 00 00               	movl	$0, %eax
  40210e: e8 cd ec ff ff               	callq	-4915 <sprintf@plt>
  402113: 0f b6 04 24                  	movzbl	(%rsp), %eax
  402117: 88 45 00                     	movb	%al, (%rbp)
  40211a: 0f b6 44 24 01               	movzbl	1(%rsp), %eax
  40211f: 88 45 01                     	movb	%al, 1(%rbp)
  402122: 0f b6 44 24 02               	movzbl	2(%rsp), %eax
  402127: 88 45 02                     	movb	%al, 2(%rbp)
  40212a: 48 8d 6d 03                  	leaq	3(%rbp), %rbp
  40212e: 48 83 c3 01                  	addq	$1, %rbx
  402132: 44 89 e0                     	movl	%r12d, %eax
  402135: 44 8d 60 ff                  	leal	-1(%rax), %r12d
  402139: 85 c0                        	testl	%eax, %eax
  40213b: 0f 85 61 ff ff ff            	jne	-159 <urlencode+0x27>
  402141: eb 05                        	jmp	5 <urlencode+0xcd>
  402143: b8 ff ff ff ff               	movl	$4294967295, %eax
  402148: 48 83 c4 10                  	addq	$16, %rsp
  40214c: 5b                           	popq	%rbx
  40214d: 5d                           	popq	%rbp
  40214e: 41 5c                        	popq	%r12
  402150: c3                           	retq

0000000000402151 rio_writen:
  402151: 41 55                        	pushq	%r13
  402153: 41 54                        	pushq	%r12
  402155: 55                           	pushq	%rbp
  402156: 53                           	pushq	%rbx
  402157: 48 83 ec 08                  	subq	$8, %rsp
  40215b: 41 89 fc                     	movl	%edi, %r12d
  40215e: 48 89 f5                     	movq	%rsi, %rbp
  402161: 49 89 d5                     	movq	%rdx, %r13
  402164: 48 89 d3                     	movq	%rdx, %rbx
  402167: eb 28                        	jmp	40 <rio_writen+0x40>
  402169: 48 89 da                     	movq	%rbx, %rdx
  40216c: 48 89 ee                     	movq	%rbp, %rsi
  40216f: 44 89 e7                     	movl	%r12d, %edi
  402172: e8 e9 ea ff ff               	callq	-5399 <write@plt>
  402177: 48 85 c0                     	testq	%rax, %rax
  40217a: 7f 0f                        	jg	15 <rio_writen+0x3a>
  40217c: e8 8f ea ff ff               	callq	-5489 <__errno_location@plt>
  402181: 83 38 04                     	cmpl	$4, (%rax)
  402184: 75 15                        	jne	21 <rio_writen+0x4a>
  402186: b8 00 00 00 00               	movl	$0, %eax
  40218b: 48 29 c3                     	subq	%rax, %rbx
  40218e: 48 01 c5                     	addq	%rax, %rbp
  402191: 48 85 db                     	testq	%rbx, %rbx
  402194: 75 d3                        	jne	-45 <rio_writen+0x18>
  402196: 4c 89 e8                     	movq	%r13, %rax
  402199: eb 07                        	jmp	7 <rio_writen+0x51>
  40219b: 48 c7 c0 ff ff ff ff         	movq	$-1, %rax
  4021a2: 48 83 c4 08                  	addq	$8, %rsp
  4021a6: 5b                           	popq	%rbx
  4021a7: 5d                           	popq	%rbp
  4021a8: 41 5c                        	popq	%r12
  4021aa: 41 5d                        	popq	%r13
  4021ac: c3                           	retq

00000000004021ad rio_read:
  4021ad: 41 56                        	pushq	%r14
  4021af: 41 55                        	pushq	%r13
  4021b1: 41 54                        	pushq	%r12
  4021b3: 55                           	pushq	%rbp
  4021b4: 53                           	pushq	%rbx
  4021b5: 48 89 fb                     	movq	%rdi, %rbx
  4021b8: 49 89 f6                     	movq	%rsi, %r14
  4021bb: 49 89 d5                     	movq	%rdx, %r13
  4021be: 4c 8d 67 10                  	leaq	16(%rdi), %r12
  4021c2: eb 2a                        	jmp	42 <rio_read+0x41>
  4021c4: ba 00 20 00 00               	movl	$8192, %edx
  4021c9: 4c 89 e6                     	movq	%r12, %rsi
  4021cc: 8b 3b                        	movl	(%rbx), %edi
  4021ce: e8 ed ea ff ff               	callq	-5395 <read@plt>
  4021d3: 89 43 04                     	movl	%eax, 4(%rbx)
  4021d6: 85 c0                        	testl	%eax, %eax
  4021d8: 79 0c                        	jns	12 <rio_read+0x39>
  4021da: e8 31 ea ff ff               	callq	-5583 <__errno_location@plt>
  4021df: 83 38 04                     	cmpl	$4, (%rax)
  4021e2: 74 0a                        	je	10 <rio_read+0x41>
  4021e4: eb 37                        	jmp	55 <rio_read+0x70>
  4021e6: 85 c0                        	testl	%eax, %eax
  4021e8: 74 3c                        	je	60 <rio_read+0x79>
  4021ea: 4c 89 63 08                  	movq	%r12, 8(%rbx)
  4021ee: 8b 6b 04                     	movl	4(%rbx), %ebp
  4021f1: 85 ed                        	testl	%ebp, %ebp
  4021f3: 7e cf                        	jle	-49 <rio_read+0x17>
  4021f5: 89 e8                        	movl	%ebp, %eax
  4021f7: 4c 39 e8                     	cmpq	%r13, %rax
  4021fa: 72 03                        	jb	3 <rio_read+0x52>
  4021fc: 44 89 ed                     	movl	%r13d, %ebp
  4021ff: 4c 63 e5                     	movslq	%ebp, %r12
  402202: 48 8b 73 08                  	movq	8(%rbx), %rsi
  402206: 4c 89 e2                     	movq	%r12, %rdx
  402209: 4c 89 f7                     	movq	%r14, %rdi
  40220c: e8 1f eb ff ff               	callq	-5345 <memcpy@plt>
  402211: 4c 01 63 08                  	addq	%r12, 8(%rbx)
  402215: 29 6b 04                     	subl	%ebp, 4(%rbx)
  402218: 4c 89 e0                     	movq	%r12, %rax
  40221b: eb 0e                        	jmp	14 <rio_read+0x7e>
  40221d: 48 c7 c0 ff ff ff ff         	movq	$-1, %rax
  402224: eb 05                        	jmp	5 <rio_read+0x7e>
  402226: b8 00 00 00 00               	movl	$0, %eax
  40222b: 5b                           	popq	%rbx
  40222c: 5d                           	popq	%rbp
  40222d: 41 5c                        	popq	%r12
  40222f: 41 5d                        	popq	%r13
  402231: 41 5e                        	popq	%r14
  402233: c3                           	retq

0000000000402234 rio_readlineb:
  402234: 41 55                        	pushq	%r13
  402236: 41 54                        	pushq	%r12
  402238: 55                           	pushq	%rbp
  402239: 53                           	pushq	%rbx
  40223a: 48 83 ec 18                  	subq	$24, %rsp
  40223e: 49 89 fd                     	movq	%rdi, %r13
  402241: 48 89 f5                     	movq	%rsi, %rbp
  402244: 49 89 d4                     	movq	%rdx, %r12
  402247: bb 01 00 00 00               	movl	$1, %ebx
  40224c: eb 3d                        	jmp	61 <rio_readlineb+0x57>
  40224e: ba 01 00 00 00               	movl	$1, %edx
  402253: 48 8d 74 24 0f               	leaq	15(%rsp), %rsi
  402258: 4c 89 ef                     	movq	%r13, %rdi
  40225b: e8 4d ff ff ff               	callq	-179 <rio_read>
  402260: 83 f8 01                     	cmpl	$1, %eax
  402263: 75 12                        	jne	18 <rio_readlineb+0x43>
  402265: 48 8d 55 01                  	leaq	1(%rbp), %rdx
  402269: 0f b6 44 24 0f               	movzbl	15(%rsp), %eax
  40226e: 88 45 00                     	movb	%al, (%rbp)
  402271: 3c 0a                        	cmpb	$10, %al
  402273: 75 0f                        	jne	15 <rio_readlineb+0x50>
  402275: eb 1b                        	jmp	27 <rio_readlineb+0x5e>
  402277: 85 c0                        	testl	%eax, %eax
  402279: 75 23                        	jne	35 <rio_readlineb+0x6a>
  40227b: 48 83 fb 01                  	cmpq	$1, %rbx
  40227f: 90                           	nop
  402280: 75 13                        	jne	19 <rio_readlineb+0x61>
  402282: eb 23                        	jmp	35 <rio_readlineb+0x73>
  402284: 48 83 c3 01                  	addq	$1, %rbx
  402288: 48 89 d5                     	movq	%rdx, %rbp
  40228b: 4c 39 e3                     	cmpq	%r12, %rbx
  40228e: 72 be                        	jb	-66 <rio_readlineb+0x1a>
  402290: eb 03                        	jmp	3 <rio_readlineb+0x61>
  402292: 48 89 d5                     	movq	%rdx, %rbp
  402295: c6 45 00 00                  	movb	$0, (%rbp)
  402299: 48 89 d8                     	movq	%rbx, %rax
  40229c: eb 0e                        	jmp	14 <rio_readlineb+0x78>
  40229e: 48 c7 c0 ff ff ff ff         	movq	$-1, %rax
  4022a5: eb 05                        	jmp	5 <rio_readlineb+0x78>
  4022a7: b8 00 00 00 00               	movl	$0, %eax
  4022ac: 48 83 c4 18                  	addq	$24, %rsp
  4022b0: 5b                           	popq	%rbx
  4022b1: 5d                           	popq	%rbp
  4022b2: 41 5c                        	popq	%r12
  4022b4: 41 5d                        	popq	%r13
  4022b6: c3                           	retq

00000000004022b7 submitr:
  4022b7: 41 57                        	pushq	%r15
  4022b9: 41 56                        	pushq	%r14
  4022bb: 41 55                        	pushq	%r13
  4022bd: 41 54                        	pushq	%r12
  4022bf: 55                           	pushq	%rbp
  4022c0: 53                           	pushq	%rbx
  4022c1: 48 81 ec 48 a0 00 00         	subq	$41032, %rsp
  4022c8: 49 89 fc                     	movq	%rdi, %r12
  4022cb: 89 74 24 04                  	movl	%esi, 4(%rsp)
  4022cf: 49 89 d7                     	movq	%rdx, %r15
  4022d2: 49 89 ce                     	movq	%rcx, %r14
  4022d5: 4c 89 44 24 08               	movq	%r8, 8(%rsp)
  4022da: 4d 89 cd                     	movq	%r9, %r13
  4022dd: 48 8b 9c 24 80 a0 00 00      	movq	41088(%rsp), %rbx
  4022e5: c7 84 24 1c 20 00 00 00 00 00 00     	movl	$0, 8220(%rsp)
  4022f0: ba 00 00 00 00               	movl	$0, %edx
  4022f5: be 01 00 00 00               	movl	$1, %esi
  4022fa: bf 02 00 00 00               	movl	$2, %edi
  4022ff: e8 0c eb ff ff               	callq	-5364 <socket@plt>
  402304: 89 c5                        	movl	%eax, %ebp
  402306: 85 c0                        	testl	%eax, %eax
  402308: 79 4e                        	jns	78 <submitr+0xa1>
  40230a: 48 b8 45 72 72 6f 72 3a 20 43	movabsq	$4836930262966366789, %rax
  402314: 48 89 03                     	movq	%rax, (%rbx)
  402317: 48 b8 6c 69 65 6e 74 20 75 6e	movabsq	$7959303600887654764, %rax
  402321: 48 89 43 08                  	movq	%rax, 8(%rbx)
  402325: 48 b8 61 62 6c 65 20 74 6f 20	movabsq	$2337214414117954145, %rax
  40232f: 48 89 43 10                  	movq	%rax, 16(%rbx)
  402333: 48 b8 63 72 65 61 74 65 20 73	movabsq	$8295742064141103715, %rax
  40233d: 48 89 43 18                  	movq	%rax, 24(%rbx)
  402341: c7 43 20 6f 63 6b 65         	movl	$1701536623, 32(%rbx)
  402348: 66 c7 43 24 74 00            	movw	$116, 36(%rbx)
  40234e: b8 ff ff ff ff               	movl	$4294967295, %eax
  402353: e9 68 06 00 00               	jmp	1640 <submitr+0x709>
  402358: 4c 89 e7                     	movq	%r12, %rdi
  40235b: e8 90 e9 ff ff               	callq	-5744 <gethostbyname@plt>
  402360: 48 85 c0                     	testq	%rax, %rax
  402363: 75 67                        	jne	103 <submitr+0x115>
  402365: 48 b8 45 72 72 6f 72 3a 20 44	movabsq	$4908987857004294725, %rax
  40236f: 48 89 03                     	movq	%rax, (%rbx)
  402372: 48 b8 4e 53 20 69 73 20 75 6e	movabsq	$7959303596504273742, %rax
  40237c: 48 89 43 08                  	movq	%rax, 8(%rbx)
  402380: 48 b8 61 62 6c 65 20 74 6f 20	movabsq	$2337214414117954145, %rax
  40238a: 48 89 43 10                  	movq	%rax, 16(%rbx)
  40238e: 48 b8 72 65 73 6f 6c 76 65 20	movabsq	$2334402189959849330, %rax
  402398: 48 89 43 18                  	movq	%rax, 24(%rbx)
  40239c: 48 b8 73 65 72 76 65 72 20 61	movabsq	$6998719601038222707, %rax
  4023a6: 48 89 43 20                  	movq	%rax, 32(%rbx)
  4023aa: c7 43 28 64 64 72 65         	movl	$1701995620, 40(%rbx)
  4023b1: 66 c7 43 2c 73 73            	movw	$29555, 44(%rbx)
  4023b7: c6 43 2e 00                  	movb	$0, 46(%rbx)
  4023bb: 89 ef                        	movl	%ebp, %edi
  4023bd: e8 ee e8 ff ff               	callq	-5906 <close@plt>
  4023c2: b8 ff ff ff ff               	movl	$4294967295, %eax
  4023c7: e9 f4 05 00 00               	jmp	1524 <submitr+0x709>
  4023cc: 48 c7 84 24 30 a0 00 00 00 00 00 00  	movq	$0, 41008(%rsp)
  4023d8: 48 c7 84 24 38 a0 00 00 00 00 00 00  	movq	$0, 41016(%rsp)
  4023e4: 66 c7 84 24 30 a0 00 00 02 00	movw	$2, 41008(%rsp)
  4023ee: 48 8b 48 18                  	movq	24(%rax), %rcx
  4023f2: 48 63 50 14                  	movslq	20(%rax), %rdx
  4023f6: 48 8d b4 24 34 a0 00 00      	leaq	41012(%rsp), %rsi
  4023fe: 48 8b 39                     	movq	(%rcx), %rdi
  402401: e8 8a e9 ff ff               	callq	-5750 <bcopy@plt>
  402406: 0f b7 44 24 04               	movzwl	4(%rsp), %eax
  40240b: 66 c1 c8 08                  	rorw	$8, %ax
  40240f: 66 89 84 24 32 a0 00 00      	movw	%ax, 41010(%rsp)
  402417: ba 10 00 00 00               	movl	$16, %edx
  40241c: 48 8d b4 24 30 a0 00 00      	leaq	41008(%rsp), %rsi
  402424: 89 ef                        	movl	%ebp, %edi
  402426: e8 d5 e9 ff ff               	callq	-5675 <connect@plt>
  40242b: 85 c0                        	testl	%eax, %eax
  40242d: 79 59                        	jns	89 <submitr+0x1d1>
  40242f: 48 b8 45 72 72 6f 72 3a 20 55	movabsq	$6133966955649069637, %rax
  402439: 48 89 03                     	movq	%rax, (%rbx)
  40243c: 48 b8 6e 61 62 6c 65 20 74 6f	movabsq	$8031079655490609518, %rax
  402446: 48 89 43 08                  	movq	%rax, 8(%rbx)
  40244a: 48 b8 20 63 6f 6e 6e 65 63 74	movabsq	$8386658456067597088, %rax
  402454: 48 89 43 10                  	movq	%rax, 16(%rbx)
  402458: 48 b8 20 74 6f 20 74 68 65 20	movabsq	$2334386829831140384, %rax
  402462: 48 89 43 18                  	movq	%rax, 24(%rbx)
  402466: c7 43 20 73 65 72 76         	movl	$1987208563, 32(%rbx)
  40246d: 66 c7 43 24 65 72            	movw	$29285, 36(%rbx)
  402473: c6 43 26 00                  	movb	$0, 38(%rbx)
  402477: 89 ef                        	movl	%ebp, %edi
  402479: e8 32 e8 ff ff               	callq	-6094 <close@plt>
  40247e: b8 ff ff ff ff               	movl	$4294967295, %eax
  402483: e9 38 05 00 00               	jmp	1336 <submitr+0x709>
  402488: 48 c7 c2 ff ff ff ff         	movq	$-1, %rdx
  40248f: 4c 89 ef                     	movq	%r13, %rdi
  402492: b8 00 00 00 00               	movl	$0, %eax
  402497: 48 89 d1                     	movq	%rdx, %rcx
  40249a: f2 ae                        	repne		scasb	%es:(%rdi), %al
  40249c: 48 f7 d1                     	notq	%rcx
  40249f: 48 89 ce                     	movq	%rcx, %rsi
  4024a2: 4c 89 ff                     	movq	%r15, %rdi
  4024a5: 48 89 d1                     	movq	%rdx, %rcx
  4024a8: f2 ae                        	repne		scasb	%es:(%rdi), %al
  4024aa: 48 f7 d1                     	notq	%rcx
  4024ad: 49 89 c8                     	movq	%rcx, %r8
  4024b0: 4c 89 f7                     	movq	%r14, %rdi
  4024b3: 48 89 d1                     	movq	%rdx, %rcx
  4024b6: f2 ae                        	repne		scasb	%es:(%rdi), %al
  4024b8: 49 29 c8                     	subq	%rcx, %r8
  4024bb: 48 8b 7c 24 08               	movq	8(%rsp), %rdi
  4024c0: 48 89 d1                     	movq	%rdx, %rcx
  4024c3: f2 ae                        	repne		scasb	%es:(%rdi), %al
  4024c5: 49 29 c8                     	subq	%rcx, %r8
  4024c8: 48 8d 44 76 fd               	leaq	-3(%rsi,%rsi,2), %rax
  4024cd: 49 8d 44 00 7b               	leaq	123(%r8,%rax), %rax
  4024d2: 48 3d 00 20 00 00            	cmpq	$8192, %rax
  4024d8: 76 72                        	jbe	114 <submitr+0x295>
  4024da: 48 b8 45 72 72 6f 72 3a 20 52	movabsq	$5917794173535285829, %rax
  4024e4: 48 89 03                     	movq	%rax, (%rbx)
  4024e7: 48 b8 65 73 75 6c 74 20 73 74	movabsq	$8391086215129297765, %rax
  4024f1: 48 89 43 08                  	movq	%rax, 8(%rbx)
  4024f5: 48 b8 72 69 6e 67 20 74 6f 6f	movabsq	$8029764343147948402, %rax
  4024ff: 48 89 43 10                  	movq	%rax, 16(%rbx)
  402503: 48 b8 20 6c 61 72 67 65 2e 20	movabsq	$2318902353117408288, %rax
  40250d: 48 89 43 18                  	movq	%rax, 24(%rbx)
  402511: 48 b8 49 6e 63 72 65 61 73 65	movabsq	$7310293708491157065, %rax
  40251b: 48 89 43 20                  	movq	%rax, 32(%rbx)
  40251f: 48 b8 20 53 55 42 4d 49 54 52	movabsq	$5932447205327983392, %rax
  402529: 48 89 43 28                  	movq	%rax, 40(%rbx)
  40252d: 48 b8 5f 4d 41 58 42 55 46 00	movabsq	$19796991806623071, %rax
  402537: 48 89 43 30                  	movq	%rax, 48(%rbx)
  40253b: 89 ef                        	movl	%ebp, %edi
  40253d: e8 6e e7 ff ff               	callq	-6290 <close@plt>
  402542: b8 ff ff ff ff               	movl	$4294967295, %eax
  402547: e9 74 04 00 00               	jmp	1140 <submitr+0x709>
  40254c: 48 8d b4 24 20 40 00 00      	leaq	16416(%rsp), %rsi
  402554: b9 00 04 00 00               	movl	$1024, %ecx
  402559: b8 00 00 00 00               	movl	$0, %eax
  40255e: 48 89 f7                     	movq	%rsi, %rdi
  402561: f3 48 ab                     	rep		stosq	%rax, %es:(%rdi)
  402564: 4c 89 ef                     	movq	%r13, %rdi
  402567: e8 0f fb ff ff               	callq	-1265 <urlencode>
  40256c: 85 c0                        	testl	%eax, %eax
  40256e: 0f 89 8a 00 00 00            	jns	138 <submitr+0x347>
  402574: 48 b8 45 72 72 6f 72 3a 20 52	movabsq	$5917794173535285829, %rax
  40257e: 48 89 03                     	movq	%rax, (%rbx)
  402581: 48 b8 65 73 75 6c 74 20 73 74	movabsq	$8391086215129297765, %rax
  40258b: 48 89 43 08                  	movq	%rax, 8(%rbx)
  40258f: 48 b8 72 69 6e 67 20 63 6f 6e	movabsq	$7957688057412348274, %rax
  402599: 48 89 43 10                  	movq	%rax, 16(%rbx)
  40259d: 48 b8 74 61 69 6e 73 20 61 6e	movabsq	$7953674097058734452, %rax
  4025a7: 48 89 43 18                  	movq	%rax, 24(%rbx)
  4025ab: 48 b8 20 69 6c 6c 65 67 61 6c	movabsq	$7809636914145552672, %rax
  4025b5: 48 89 43 20                  	movq	%rax, 32(%rbx)
  4025b9: 48 b8 20 6f 72 20 75 6e 70 72	movabsq	$8246212367049977632, %rax
  4025c3: 48 89 43 28                  	movq	%rax, 40(%rbx)
  4025c7: 48 b8 69 6e 74 61 62 6c 65 20	movabsq	$2334391151659085417, %rax
  4025d1: 48 89 43 30                  	movq	%rax, 48(%rbx)
  4025d5: 48 b8 63 68 61 72 61 63 74 65	movabsq	$7310577365311121507, %rax
  4025df: 48 89 43 38                  	movq	%rax, 56(%rbx)
  4025e3: 66 c7 43 40 72 2e            	movw	$11890, 64(%rbx)
  4025e9: c6 43 42 00                  	movb	$0, 66(%rbx)
  4025ed: 89 ef                        	movl	%ebp, %edi
  4025ef: e8 bc e6 ff ff               	callq	-6468 <close@plt>
  4025f4: b8 ff ff ff ff               	movl	$4294967295, %eax
  4025f9: e9 c2 03 00 00               	jmp	962 <submitr+0x709>
  4025fe: 4d 89 e1                     	movq	%r12, %r9
  402601: 4c 8d 84 24 20 40 00 00      	leaq	16416(%rsp), %r8
  402609: 4c 89 f9                     	movq	%r15, %rcx
  40260c: 4c 89 f2                     	movq	%r14, %rdx
  40260f: be 68 35 40 00               	movl	$4207976, %esi
  402614: 48 8d bc 24 20 60 00 00      	leaq	24608(%rsp), %rdi
  40261c: b8 00 00 00 00               	movl	$0, %eax
  402621: e8 ba e7 ff ff               	callq	-6214 <sprintf@plt>
  402626: 48 8d bc 24 20 60 00 00      	leaq	24608(%rsp), %rdi
  40262e: b8 00 00 00 00               	movl	$0, %eax
  402633: 48 c7 c1 ff ff ff ff         	movq	$-1, %rcx
  40263a: f2 ae                        	repne		scasb	%es:(%rdi), %al
  40263c: 48 f7 d1                     	notq	%rcx
  40263f: 48 8d 51 ff                  	leaq	-1(%rcx), %rdx
  402643: 48 8d b4 24 20 60 00 00      	leaq	24608(%rsp), %rsi
  40264b: 89 ef                        	movl	%ebp, %edi
  40264d: e8 ff fa ff ff               	callq	-1281 <rio_writen>
  402652: 48 85 c0                     	testq	%rax, %rax
  402655: 79 6e                        	jns	110 <submitr+0x40e>
  402657: 48 b8 45 72 72 6f 72 3a 20 43	movabsq	$4836930262966366789, %rax
  402661: 48 89 03                     	movq	%rax, (%rbx)
  402664: 48 b8 6c 69 65 6e 74 20 75 6e	movabsq	$7959303600887654764, %rax
  40266e: 48 89 43 08                  	movq	%rax, 8(%rbx)
  402672: 48 b8 61 62 6c 65 20 74 6f 20	movabsq	$2337214414117954145, %rax
  40267c: 48 89 43 10                  	movq	%rax, 16(%rbx)
  402680: 48 b8 77 72 69 74 65 20 74 6f	movabsq	$8031079655625290359, %rax
  40268a: 48 89 43 18                  	movq	%rax, 24(%rbx)
  40268e: 48 b8 20 74 68 65 20 72 65 73	movabsq	$8315177770475353120, %rax
  402698: 48 89 43 20                  	movq	%rax, 32(%rbx)
  40269c: 48 b8 75 6c 74 20 73 65 72 76	movabsq	$8534995788960656501, %rax
  4026a6: 48 89 43 28                  	movq	%rax, 40(%rbx)
  4026aa: 66 c7 43 30 65 72            	movw	$29285, 48(%rbx)
  4026b0: c6 43 32 00                  	movb	$0, 50(%rbx)
  4026b4: 89 ef                        	movl	%ebp, %edi
  4026b6: e8 f5 e5 ff ff               	callq	-6667 <close@plt>
  4026bb: b8 ff ff ff ff               	movl	$4294967295, %eax
  4026c0: e9 fb 02 00 00               	jmp	763 <submitr+0x709>
  4026c5: 89 ee                        	movl	%ebp, %esi
  4026c7: 48 8d bc 24 20 80 00 00      	leaq	32800(%rsp), %rdi
  4026cf: e8 6c f9 ff ff               	callq	-1684 <rio_readinitb>
  4026d4: ba 00 20 00 00               	movl	$8192, %edx
  4026d9: 48 8d b4 24 20 60 00 00      	leaq	24608(%rsp), %rsi
  4026e1: 48 8d bc 24 20 80 00 00      	leaq	32800(%rsp), %rdi
  4026e9: e8 46 fb ff ff               	callq	-1210 <rio_readlineb>
  4026ee: 48 85 c0                     	testq	%rax, %rax
  4026f1: 7f 7d                        	jg	125 <submitr+0x4b9>
  4026f3: 48 b8 45 72 72 6f 72 3a 20 43	movabsq	$4836930262966366789, %rax
  4026fd: 48 89 03                     	movq	%rax, (%rbx)
  402700: 48 b8 6c 69 65 6e 74 20 75 6e	movabsq	$7959303600887654764, %rax
  40270a: 48 89 43 08                  	movq	%rax, 8(%rbx)
  40270e: 48 b8 61 62 6c 65 20 74 6f 20	movabsq	$2337214414117954145, %rax
  402718: 48 89 43 10                  	movq	%rax, 16(%rbx)
  40271c: 48 b8 72 65 61 64 20 66 69 72	movabsq	$8244232882187494770, %rax
  402726: 48 89 43 18                  	movq	%rax, 24(%rbx)
  40272a: 48 b8 73 74 20 68 65 61 64 65	movabsq	$7306071583668335731, %rax
  402734: 48 89 43 20                  	movq	%rax, 32(%rbx)
  402738: 48 b8 72 20 66 72 6f 6d 20 72	movabsq	$8223693245006618738, %rax
  402742: 48 89 43 28                  	movq	%rax, 40(%rbx)
  402746: 48 b8 65 73 75 6c 74 20 73 65	movabsq	$7310222304560378725, %rax
  402750: 48 89 43 30                  	movq	%rax, 48(%rbx)
  402754: c7 43 38 72 76 65 72         	movl	$1919252082, 56(%rbx)
  40275b: c6 43 3c 00                  	movb	$0, 60(%rbx)
  40275f: 89 ef                        	movl	%ebp, %edi
  402761: e8 4a e5 ff ff               	callq	-6838 <close@plt>
  402766: b8 ff ff ff ff               	movl	$4294967295, %eax
  40276b: e9 50 02 00 00               	jmp	592 <submitr+0x709>
  402770: 4c 8d 44 24 10               	leaq	16(%rsp), %r8
  402775: 48 8d 8c 24 1c 20 00 00      	leaq	8220(%rsp), %rcx
  40277d: 48 8d 94 24 20 20 00 00      	leaq	8224(%rsp), %rdx
  402785: be df 35 40 00               	movl	$4208095, %esi
  40278a: 48 8d bc 24 20 60 00 00      	leaq	24608(%rsp), %rdi
  402792: b8 00 00 00 00               	movl	$0, %eax
  402797: e8 d4 e5 ff ff               	callq	-6700 <__isoc99_sscanf@plt>
  40279c: e9 98 00 00 00               	jmp	152 <submitr+0x582>
  4027a1: ba 00 20 00 00               	movl	$8192, %edx
  4027a6: 48 8d b4 24 20 60 00 00      	leaq	24608(%rsp), %rsi
  4027ae: 48 8d bc 24 20 80 00 00      	leaq	32800(%rsp), %rdi
  4027b6: e8 79 fa ff ff               	callq	-1415 <rio_readlineb>
  4027bb: 48 85 c0                     	testq	%rax, %rax
  4027be: 7f 79                        	jg	121 <submitr+0x582>
  4027c0: 48 b8 45 72 72 6f 72 3a 20 43	movabsq	$4836930262966366789, %rax
  4027ca: 48 89 03                     	movq	%rax, (%rbx)
  4027cd: 48 b8 6c 69 65 6e 74 20 75 6e	movabsq	$7959303600887654764, %rax
  4027d7: 48 89 43 08                  	movq	%rax, 8(%rbx)
  4027db: 48 b8 61 62 6c 65 20 74 6f 20	movabsq	$2337214414117954145, %rax
  4027e5: 48 89 43 10                  	movq	%rax, 16(%rbx)
  4027e9: 48 b8 72 65 61 64 20 68 65 61	movabsq	$7018130082659132786, %rax
  4027f3: 48 89 43 18                  	movq	%rax, 24(%rbx)
  4027f7: 48 b8 64 65 72 73 20 66 72 6f	movabsq	$8030593375116879204, %rax
  402801: 48 89 43 20                  	movq	%rax, 32(%rbx)
  402805: 48 b8 6d 20 74 68 65 20 72 65	movabsq	$7309940765091962989, %rax
  40280f: 48 89 43 28                  	movq	%rax, 40(%rbx)
  402813: 48 b8 73 75 6c 74 20 73 65 72	movabsq	$8243121276200973683, %rax
  40281d: 48 89 43 30                  	movq	%rax, 48(%rbx)
  402821: c7 43 38 76 65 72 00         	movl	$7497078, 56(%rbx)
  402828: 89 ef                        	movl	%ebp, %edi
  40282a: e8 81 e4 ff ff               	callq	-7039 <close@plt>
  40282f: b8 ff ff ff ff               	movl	$4294967295, %eax
  402834: e9 87 01 00 00               	jmp	391 <submitr+0x709>
  402839: 0f b6 84 24 20 60 00 00      	movzbl	24608(%rsp), %eax
  402841: 83 e8 0d                     	subl	$13, %eax
  402844: 75 15                        	jne	21 <submitr+0x5a4>
  402846: 0f b6 84 24 21 60 00 00      	movzbl	24609(%rsp), %eax
  40284e: 83 e8 0a                     	subl	$10, %eax
  402851: 75 08                        	jne	8 <submitr+0x5a4>
  402853: 0f b6 84 24 22 60 00 00      	movzbl	24610(%rsp), %eax
  40285b: 85 c0                        	testl	%eax, %eax
  40285d: 0f 85 3e ff ff ff            	jne	-194 <submitr+0x4ea>
  402863: ba 00 20 00 00               	movl	$8192, %edx
  402868: 48 8d b4 24 20 60 00 00      	leaq	24608(%rsp), %rsi
  402870: 48 8d bc 24 20 80 00 00      	leaq	32800(%rsp), %rdi
  402878: e8 b7 f9 ff ff               	callq	-1609 <rio_readlineb>
  40287d: 48 85 c0                     	testq	%rax, %rax
  402880: 0f 8f 83 00 00 00            	jg	131 <submitr+0x652>
  402886: 48 b8 45 72 72 6f 72 3a 20 43	movabsq	$4836930262966366789, %rax
  402890: 48 89 03                     	movq	%rax, (%rbx)
  402893: 48 b8 6c 69 65 6e 74 20 75 6e	movabsq	$7959303600887654764, %rax
  40289d: 48 89 43 08                  	movq	%rax, 8(%rbx)
  4028a1: 48 b8 61 62 6c 65 20 74 6f 20	movabsq	$2337214414117954145, %rax
  4028ab: 48 89 43 10                  	movq	%rax, 16(%rbx)
  4028af: 48 b8 72 65 61 64 20 73 74 61	movabsq	$7022364301937698162, %rax
  4028b9: 48 89 43 18                  	movq	%rax, 24(%rbx)
  4028bd: 48 b8 74 75 73 20 6d 65 73 73	movabsq	$8319104456053716340, %rax
  4028c7: 48 89 43 20                  	movq	%rax, 32(%rbx)
  4028cb: 48 b8 61 67 65 20 66 72 6f 6d	movabsq	$7885647255504775009, %rax
  4028d5: 48 89 43 28                  	movq	%rax, 40(%rbx)
  4028d9: 48 b8 20 72 65 73 75 6c 74 20	movabsq	$2338613358215131680, %rax
  4028e3: 48 89 43 30                  	movq	%rax, 48(%rbx)
  4028e7: c7 43 38 73 65 72 76         	movl	$1987208563, 56(%rbx)
  4028ee: 66 c7 43 3c 65 72            	movw	$29285, 60(%rbx)
  4028f4: c6 43 3e 00                  	movb	$0, 62(%rbx)
  4028f8: 89 ef                        	movl	%ebp, %edi
  4028fa: e8 b1 e3 ff ff               	callq	-7247 <close@plt>
  4028ff: b8 ff ff ff ff               	movl	$4294967295, %eax
  402904: e9 b7 00 00 00               	jmp	183 <submitr+0x709>
  402909: 8b 94 24 1c 20 00 00         	movl	8220(%rsp), %edx
  402910: 81 fa c8 00 00 00            	cmpl	$200, %edx
  402916: 74 28                        	je	40 <submitr+0x689>
  402918: 48 8d 4c 24 10               	leaq	16(%rsp), %rcx
  40291d: be a8 35 40 00               	movl	$4208040, %esi
  402922: 48 89 df                     	movq	%rbx, %rdi
  402925: b8 00 00 00 00               	movl	$0, %eax
  40292a: e8 b1 e4 ff ff               	callq	-6991 <sprintf@plt>
  40292f: 89 ef                        	movl	%ebp, %edi
  402931: e8 7a e3 ff ff               	callq	-7302 <close@plt>
  402936: b8 ff ff ff ff               	movl	$4294967295, %eax
  40293b: e9 80 00 00 00               	jmp	128 <submitr+0x709>
  402940: 48 8d b4 24 20 60 00 00      	leaq	24608(%rsp), %rsi
  402948: 48 89 df                     	movq	%rbx, %rdi
  40294b: e8 f0 e2 ff ff               	callq	-7440 <strcpy@plt>
  402950: 89 ef                        	movl	%ebp, %edi
  402952: e8 59 e3 ff ff               	callq	-7335 <close@plt>
  402957: 0f b6 03                     	movzbl	(%rbx), %eax
  40295a: 83 e8 4f                     	subl	$79, %eax
  40295d: 75 18                        	jne	24 <submitr+0x6c0>
  40295f: 0f b6 53 01                  	movzbl	1(%rbx), %edx
  402963: 83 ea 4b                     	subl	$75, %edx
  402966: 75 11                        	jne	17 <submitr+0x6c2>
  402968: 0f b6 53 02                  	movzbl	2(%rbx), %edx
  40296c: 83 ea 0a                     	subl	$10, %edx
  40296f: 75 08                        	jne	8 <submitr+0x6c2>
  402971: 0f b6 53 03                  	movzbl	3(%rbx), %edx
  402975: eb 02                        	jmp	2 <submitr+0x6c2>
  402977: 89 c2                        	movl	%eax, %edx
  402979: 85 d2                        	testl	%edx, %edx
  40297b: 74 30                        	je	48 <submitr+0x6f6>
  40297d: bf f0 35 40 00               	movl	$4208112, %edi
  402982: b9 05 00 00 00               	movl	$5, %ecx
  402987: 48 89 de                     	movq	%rbx, %rsi
  40298a: f3 a6                        	rep		cmpsb	%es:(%rdi), (%rsi)
  40298c: 0f 97 c1                     	seta	%cl
  40298f: 0f 92 c2                     	setb	%dl
  402992: 38 d1                        	cmpb	%dl, %cl
  402994: 74 1e                        	je	30 <submitr+0x6fd>
  402996: 85 c0                        	testl	%eax, %eax
  402998: 75 0d                        	jne	13 <submitr+0x6f0>
  40299a: 0f b6 43 01                  	movzbl	1(%rbx), %eax
  40299e: 83 e8 4b                     	subl	$75, %eax
  4029a1: 75 04                        	jne	4 <submitr+0x6f0>
  4029a3: 0f b6 43 02                  	movzbl	2(%rbx), %eax
  4029a7: 85 c0                        	testl	%eax, %eax
  4029a9: 75 10                        	jne	16 <submitr+0x704>
  4029ab: eb 13                        	jmp	19 <submitr+0x709>
  4029ad: b8 00 00 00 00               	movl	$0, %eax
  4029b2: eb 0c                        	jmp	12 <submitr+0x709>
  4029b4: b8 00 00 00 00               	movl	$0, %eax
  4029b9: eb 05                        	jmp	5 <submitr+0x709>
  4029bb: b8 ff ff ff ff               	movl	$4294967295, %eax
  4029c0: 48 81 c4 48 a0 00 00         	addq	$41032, %rsp
  4029c7: 5b                           	popq	%rbx
  4029c8: 5d                           	popq	%rbp
  4029c9: 41 5c                        	popq	%r12
  4029cb: 41 5d                        	popq	%r13
  4029cd: 41 5e                        	popq	%r14
  4029cf: 41 5f                        	popq	%r15
  4029d1: c3                           	retq

00000000004029d2 init_timeout:
  4029d2: 53                           	pushq	%rbx
  4029d3: 89 fb                        	movl	%edi, %ebx
  4029d5: 85 ff                        	testl	%edi, %edi
  4029d7: 74 1f                        	je	31 <init_timeout+0x26>
  4029d9: 85 ff                        	testl	%edi, %edi
  4029db: 79 05                        	jns	5 <init_timeout+0x10>
  4029dd: bb 00 00 00 00               	movl	$0, %ebx
  4029e2: be 52 20 40 00               	movl	$4202578, %esi
  4029e7: bf 0e 00 00 00               	movl	$14, %edi
  4029ec: e8 ef e2 ff ff               	callq	-7441 <signal@plt>
  4029f1: 89 df                        	movl	%ebx, %edi
  4029f3: e8 a8 e2 ff ff               	callq	-7512 <alarm@plt>
  4029f8: 5b                           	popq	%rbx
  4029f9: c3                           	retq

00000000004029fa init_driver:
  4029fa: 55                           	pushq	%rbp
  4029fb: 53                           	pushq	%rbx
  4029fc: 48 83 ec 18                  	subq	$24, %rsp
  402a00: 48 89 fd                     	movq	%rdi, %rbp
  402a03: be 01 00 00 00               	movl	$1, %esi
  402a08: bf 0d 00 00 00               	movl	$13, %edi
  402a0d: e8 ce e2 ff ff               	callq	-7474 <signal@plt>
  402a12: be 01 00 00 00               	movl	$1, %esi
  402a17: bf 1d 00 00 00               	movl	$29, %edi
  402a1c: e8 bf e2 ff ff               	callq	-7489 <signal@plt>
  402a21: be 01 00 00 00               	movl	$1, %esi
  402a26: bf 1d 00 00 00               	movl	$29, %edi
  402a2b: e8 b0 e2 ff ff               	callq	-7504 <signal@plt>
  402a30: ba 00 00 00 00               	movl	$0, %edx
  402a35: be 01 00 00 00               	movl	$1, %esi
  402a3a: bf 02 00 00 00               	movl	$2, %edi
  402a3f: e8 cc e3 ff ff               	callq	-7220 <socket@plt>
  402a44: 89 c3                        	movl	%eax, %ebx
  402a46: 85 c0                        	testl	%eax, %eax
  402a48: 79 4f                        	jns	79 <init_driver+0x9f>
  402a4a: 48 b8 45 72 72 6f 72 3a 20 43	movabsq	$4836930262966366789, %rax
  402a54: 48 89 45 00                  	movq	%rax, (%rbp)
  402a58: 48 b8 6c 69 65 6e 74 20 75 6e	movabsq	$7959303600887654764, %rax
  402a62: 48 89 45 08                  	movq	%rax, 8(%rbp)
  402a66: 48 b8 61 62 6c 65 20 74 6f 20	movabsq	$2337214414117954145, %rax
  402a70: 48 89 45 10                  	movq	%rax, 16(%rbp)
  402a74: 48 b8 63 72 65 61 74 65 20 73	movabsq	$8295742064141103715, %rax
  402a7e: 48 89 45 18                  	movq	%rax, 24(%rbp)
  402a82: c7 45 20 6f 63 6b 65         	movl	$1701536623, 32(%rbp)
  402a89: 66 c7 45 24 74 00            	movw	$116, 36(%rbp)
  402a8f: b8 ff ff ff ff               	movl	$4294967295, %eax
  402a94: e9 23 01 00 00               	jmp	291 <init_driver+0x1c2>
  402a99: bf 60 30 40 00               	movl	$4206688, %edi
  402a9e: e8 4d e2 ff ff               	callq	-7603 <gethostbyname@plt>
  402aa3: 48 85 c0                     	testq	%rax, %rax
  402aa6: 75 68                        	jne	104 <init_driver+0x116>
  402aa8: 48 b8 45 72 72 6f 72 3a 20 44	movabsq	$4908987857004294725, %rax
  402ab2: 48 89 45 00                  	movq	%rax, (%rbp)
  402ab6: 48 b8 4e 53 20 69 73 20 75 6e	movabsq	$7959303596504273742, %rax
  402ac0: 48 89 45 08                  	movq	%rax, 8(%rbp)
  402ac4: 48 b8 61 62 6c 65 20 74 6f 20	movabsq	$2337214414117954145, %rax
  402ace: 48 89 45 10                  	movq	%rax, 16(%rbp)
  402ad2: 48 b8 72 65 73 6f 6c 76 65 20	movabsq	$2334402189959849330, %rax
  402adc: 48 89 45 18                  	movq	%rax, 24(%rbp)
  402ae0: 48 b8 73 65 72 76 65 72 20 61	movabsq	$6998719601038222707, %rax
  402aea: 48 89 45 20                  	movq	%rax, 32(%rbp)
  402aee: c7 45 28 64 64 72 65         	movl	$1701995620, 40(%rbp)
  402af5: 66 c7 45 2c 73 73            	movw	$29555, 44(%rbp)
  402afb: c6 45 2e 00                  	movb	$0, 46(%rbp)
  402aff: 89 df                        	movl	%ebx, %edi
  402b01: e8 aa e1 ff ff               	callq	-7766 <close@plt>
  402b06: b8 ff ff ff ff               	movl	$4294967295, %eax
  402b0b: e9 ac 00 00 00               	jmp	172 <init_driver+0x1c2>
  402b10: 48 c7 04 24 00 00 00 00      	movq	$0, (%rsp)
  402b18: 48 c7 44 24 08 00 00 00 00   	movq	$0, 8(%rsp)
  402b21: 66 c7 04 24 02 00            	movw	$2, (%rsp)
  402b27: 48 8b 48 18                  	movq	24(%rax), %rcx
  402b2b: 48 63 50 14                  	movslq	20(%rax), %rdx
  402b2f: 48 8d 74 24 04               	leaq	4(%rsp), %rsi
  402b34: 48 8b 39                     	movq	(%rcx), %rdi
  402b37: e8 54 e2 ff ff               	callq	-7596 <bcopy@plt>
  402b3c: 66 c7 44 24 02 47 26         	movw	$9799, 2(%rsp)
  402b43: ba 10 00 00 00               	movl	$16, %edx
  402b48: 48 89 e6                     	movq	%rsp, %rsi
  402b4b: 89 df                        	movl	%ebx, %edi
  402b4d: e8 ae e2 ff ff               	callq	-7506 <connect@plt>
  402b52: 85 c0                        	testl	%eax, %eax
  402b54: 79 50                        	jns	80 <init_driver+0x1ac>
  402b56: 48 b8 45 72 72 6f 72 3a 20 55	movabsq	$6133966955649069637, %rax
  402b60: 48 89 45 00                  	movq	%rax, (%rbp)
  402b64: 48 b8 6e 61 62 6c 65 20 74 6f	movabsq	$8031079655490609518, %rax
  402b6e: 48 89 45 08                  	movq	%rax, 8(%rbp)
  402b72: 48 b8 20 63 6f 6e 6e 65 63 74	movabsq	$8386658456067597088, %rax
  402b7c: 48 89 45 10                  	movq	%rax, 16(%rbp)
  402b80: 48 b8 20 74 6f 20 73 65 72 76	movabsq	$8534995788960330784, %rax
  402b8a: 48 89 45 18                  	movq	%rax, 24(%rbp)
  402b8e: 66 c7 45 20 65 72            	movw	$29285, 32(%rbp)
  402b94: c6 45 22 00                  	movb	$0, 34(%rbp)
  402b98: 89 df                        	movl	%ebx, %edi
  402b9a: e8 11 e1 ff ff               	callq	-7919 <close@plt>
  402b9f: b8 ff ff ff ff               	movl	$4294967295, %eax
  402ba4: eb 16                        	jmp	22 <init_driver+0x1c2>
  402ba6: 89 df                        	movl	%ebx, %edi
  402ba8: e8 03 e1 ff ff               	callq	-7933 <close@plt>
  402bad: 66 c7 45 00 4f 4b            	movw	$19279, (%rbp)
  402bb3: c6 45 02 00                  	movb	$0, 2(%rbp)
  402bb7: b8 00 00 00 00               	movl	$0, %eax
  402bbc: 48 83 c4 18                  	addq	$24, %rsp
  402bc0: 5b                           	popq	%rbx
  402bc1: 5d                           	popq	%rbp
  402bc2: c3                           	retq

0000000000402bc3 driver_post:
  402bc3: 53                           	pushq	%rbx
  402bc4: 48 83 ec 10                  	subq	$16, %rsp
  402bc8: 4c 89 cb                     	movq	%r9, %rbx
  402bcb: 45 85 c0                     	testl	%r8d, %r8d
  402bce: 74 22                        	je	34 <driver_post+0x2f>
  402bd0: 48 89 ce                     	movq	%rcx, %rsi
  402bd3: bf f5 35 40 00               	movl	$4208117, %edi
  402bd8: b8 00 00 00 00               	movl	$0, %eax
  402bdd: e8 9e e0 ff ff               	callq	-8034 <printf@plt>
  402be2: 66 c7 03 4f 4b               	movw	$19279, (%rbx)
  402be7: c6 43 02 00                  	movb	$0, 2(%rbx)
  402beb: b8 00 00 00 00               	movl	$0, %eax
  402bf0: eb 39                        	jmp	57 <driver_post+0x68>
  402bf2: 48 85 ff                     	testq	%rdi, %rdi
  402bf5: 74 26                        	je	38 <driver_post+0x5a>
  402bf7: 80 3f 00                     	cmpb	$0, (%rdi)
  402bfa: 74 21                        	je	33 <driver_post+0x5a>
  402bfc: 4c 89 0c 24                  	movq	%r9, (%rsp)
  402c00: 49 89 c9                     	movq	%rcx, %r9
  402c03: 49 89 d0                     	movq	%rdx, %r8
  402c06: 48 89 f9                     	movq	%rdi, %rcx
  402c09: 48 89 f2                     	movq	%rsi, %rdx
  402c0c: be 26 47 00 00               	movl	$18214, %esi
  402c11: bf 60 30 40 00               	movl	$4206688, %edi
  402c16: e8 9c f6 ff ff               	callq	-2404 <submitr>
  402c1b: eb 0e                        	jmp	14 <driver_post+0x68>
  402c1d: 66 c7 03 4f 4b               	movw	$19279, (%rbx)
  402c22: c6 43 02 00                  	movb	$0, 2(%rbx)
  402c26: b8 00 00 00 00               	movl	$0, %eax
  402c2b: 48 83 c4 10                  	addq	$16, %rsp
  402c2f: 5b                           	popq	%rbx
  402c30: c3                           	retq

0000000000402c31 check:
  402c31: 89 f8                        	movl	%edi, %eax
  402c33: c1 e8 1c                     	shrl	$28, %eax
  402c36: 85 c0                        	testl	%eax, %eax
  402c38: 74 1d                        	je	29 <check+0x26>
  402c3a: b9 00 00 00 00               	movl	$0, %ecx
  402c3f: eb 0b                        	jmp	11 <check+0x1b>
  402c41: 89 f8                        	movl	%edi, %eax
  402c43: d3 e8                        	shrl	%cl, %eax
  402c45: 3c 0a                        	cmpb	$10, %al
  402c47: 74 14                        	je	20 <check+0x2c>
  402c49: 83 c1 08                     	addl	$8, %ecx
  402c4c: 83 f9 1f                     	cmpl	$31, %ecx
  402c4f: 7e f0                        	jle	-16 <check+0x10>
  402c51: b8 01 00 00 00               	movl	$1, %eax
  402c56: c3                           	retq
  402c57: b8 00 00 00 00               	movl	$0, %eax
  402c5c: c3                           	retq
  402c5d: b8 00 00 00 00               	movl	$0, %eax
  402c62: c3                           	retq

0000000000402c63 gencookie:
  402c63: 53                           	pushq	%rbx
  402c64: 83 c7 01                     	addl	$1, %edi
  402c67: e8 b4 df ff ff               	callq	-8268 <srandom@plt>
  402c6c: e8 df e0 ff ff               	callq	-7969 <random@plt>
  402c71: 89 c3                        	movl	%eax, %ebx
  402c73: 89 c7                        	movl	%eax, %edi
  402c75: e8 b7 ff ff ff               	callq	-73 <check>
  402c7a: 85 c0                        	testl	%eax, %eax
  402c7c: 74 ee                        	je	-18 <gencookie+0x9>
  402c7e: 89 d8                        	movl	%ebx, %eax
  402c80: 5b                           	popq	%rbx
  402c81: c3                           	retq
  402c82: 66 2e 0f 1f 84 00 00 00 00 00	nopw	%cs:(%rax,%rax)
  402c8c: 0f 1f 40 00                  	nopl	(%rax)

0000000000402c90 __libc_csu_init:
  402c90: 41 57                        	pushq	%r15
  402c92: 41 89 ff                     	movl	%edi, %r15d
  402c95: 41 56                        	pushq	%r14
  402c97: 49 89 f6                     	movq	%rsi, %r14
  402c9a: 41 55                        	pushq	%r13
  402c9c: 49 89 d5                     	movq	%rdx, %r13
  402c9f: 41 54                        	pushq	%r12
  402ca1: 4c 8d 25 68 21 20 00         	leaq	2105704(%rip), %r12
  402ca8: 55                           	pushq	%rbp
  402ca9: 48 8d 2d 68 21 20 00         	leaq	2105704(%rip), %rbp
  402cb0: 53                           	pushq	%rbx
  402cb1: 4c 29 e5                     	subq	%r12, %rbp
  402cb4: 31 db                        	xorl	%ebx, %ebx
  402cb6: 48 c1 fd 03                  	sarq	$3, %rbp
  402cba: 48 83 ec 08                  	subq	$8, %rsp
  402cbe: e8 05 df ff ff               	callq	-8443 <_init>
  402cc3: 48 85 ed                     	testq	%rbp, %rbp
  402cc6: 74 1e                        	je	30 <__libc_csu_init+0x56>
  402cc8: 0f 1f 84 00 00 00 00 00      	nopl	(%rax,%rax)
  402cd0: 4c 89 ea                     	movq	%r13, %rdx
  402cd3: 4c 89 f6                     	movq	%r14, %rsi
  402cd6: 44 89 ff                     	movl	%r15d, %edi
  402cd9: 41 ff 14 dc                  	callq	*(%r12,%rbx,8)
  402cdd: 48 83 c3 01                  	addq	$1, %rbx
  402ce1: 48 39 eb                     	cmpq	%rbp, %rbx
  402ce4: 75 ea                        	jne	-22 <__libc_csu_init+0x40>
  402ce6: 48 83 c4 08                  	addq	$8, %rsp
  402cea: 5b                           	popq	%rbx
  402ceb: 5d                           	popq	%rbp
  402cec: 41 5c                        	popq	%r12
  402cee: 41 5d                        	popq	%r13
  402cf0: 41 5e                        	popq	%r14
  402cf2: 41 5f                        	popq	%r15
  402cf4: c3                           	retq
  402cf5: 90                           	nop
  402cf6: 66 2e 0f 1f 84 00 00 00 00 00	nopw	%cs:(%rax,%rax)

0000000000402d00 __libc_csu_fini:
  402d00: f3 c3                        	rep		retq

Disassembly of section .fini:

0000000000402d04 _fini:
  402d04: 48 83 ec 08                  	subq	$8, %rsp
  402d08: 48 83 c4 08                  	addq	$8, %rsp
  402d0c: c3                           	retq
